
/home/merl/github_repos/azadi/tests/asm/output/add.merl:     file format elf32-littleriscv


Disassembly of section .init:

00000000 <_start>:
   0:	00000297          	auipc	t0,0x0
   4:	0a028293          	addi	t0,t0,160 # a0 <_stext>
   8:	30529073          	csrw	mtvec,t0
   c:	00000093          	li	ra,0
  10:	00000113          	li	sp,0
  14:	00000193          	li	gp,0
  18:	00000213          	li	tp,0
  1c:	00000293          	li	t0,0
  20:	00000313          	li	t1,0
  24:	00000393          	li	t2,0
  28:	00000413          	li	s0,0
  2c:	00000493          	li	s1,0
  30:	00000513          	li	a0,0
  34:	00000593          	li	a1,0
  38:	00000613          	li	a2,0
  3c:	00000693          	li	a3,0
  40:	00000713          	li	a4,0
  44:	00000793          	li	a5,0
  48:	00000813          	li	a6,0
  4c:	00000893          	li	a7,0
  50:	00000913          	li	s2,0
  54:	00000993          	li	s3,0
  58:	00000a13          	li	s4,0
  5c:	00000a93          	li	s5,0
  60:	00000b13          	li	s6,0
  64:	00000b93          	li	s7,0
  68:	00000c13          	li	s8,0
  6c:	00000c93          	li	s9,0
  70:	00000d13          	li	s10,0
  74:	00000d93          	li	s11,0
  78:	00000e13          	li	t3,0
  7c:	00000e93          	li	t4,0
  80:	00000f13          	li	t5,0
  84:	00000f93          	li	t6,0
  88:	10000197          	auipc	gp,0x10000
  8c:	f7818193          	addi	gp,gp,-136 # 10000000 <__global_pointer$>
  90:	10001117          	auipc	sp,0x10001
  94:	f7010113          	addi	sp,sp,-144 # 10001000 <__stack_top>
  98:	00010433          	add	s0,sp,zero
  9c:	1240006f          	j	1c0 <main>

Disassembly of section .text:

000000a0 <_stext>:
  a0:	f8010113          	addi	sp,sp,-128
  a4:	00000013          	nop
  a8:	00112223          	sw	ra,4(sp)
  ac:	00212423          	sw	sp,8(sp)
  b0:	00312623          	sw	gp,12(sp)
  b4:	00412823          	sw	tp,16(sp)
  b8:	00512a23          	sw	t0,20(sp)
  bc:	00612c23          	sw	t1,24(sp)
  c0:	00712e23          	sw	t2,28(sp)
  c4:	02812023          	sw	s0,32(sp)
  c8:	02912223          	sw	s1,36(sp)
  cc:	02a12423          	sw	a0,40(sp)
  d0:	02b12623          	sw	a1,44(sp)
  d4:	02c12823          	sw	a2,48(sp)
  d8:	02d12a23          	sw	a3,52(sp)
  dc:	02e12c23          	sw	a4,56(sp)
  e0:	02f12e23          	sw	a5,60(sp)
  e4:	05012023          	sw	a6,64(sp)
  e8:	05112223          	sw	a7,68(sp)
  ec:	05212423          	sw	s2,72(sp)
  f0:	05312623          	sw	s3,76(sp)
  f4:	05412823          	sw	s4,80(sp)
  f8:	05512a23          	sw	s5,84(sp)
  fc:	05612c23          	sw	s6,88(sp)
 100:	05712e23          	sw	s7,92(sp)
 104:	07812023          	sw	s8,96(sp)
 108:	07912223          	sw	s9,100(sp)
 10c:	07a12423          	sw	s10,104(sp)
 110:	07b12623          	sw	s11,108(sp)
 114:	07c12823          	sw	t3,112(sp)
 118:	07d12a23          	sw	t4,116(sp)
 11c:	07e12c23          	sw	t5,120(sp)
 120:	07f12e23          	sw	t6,124(sp)
 124:	34202573          	csrr	a0,mcause
 128:	341025f3          	csrr	a1,mepc
 12c:	00010613          	mv	a2,sp
 130:	5d4000ef          	jal	ra,704 <handle_trap>
 134:	34151073          	csrw	mepc,a0
 138:	00412083          	lw	ra,4(sp)
 13c:	00812103          	lw	sp,8(sp)
 140:	00c12183          	lw	gp,12(sp)
 144:	01012203          	lw	tp,16(sp)
 148:	01412283          	lw	t0,20(sp)
 14c:	01812303          	lw	t1,24(sp)
 150:	01c12383          	lw	t2,28(sp)
 154:	02012403          	lw	s0,32(sp)
 158:	02412483          	lw	s1,36(sp)
 15c:	02812503          	lw	a0,40(sp)
 160:	02c12583          	lw	a1,44(sp)
 164:	03012603          	lw	a2,48(sp)
 168:	03412683          	lw	a3,52(sp)
 16c:	03812703          	lw	a4,56(sp)
 170:	03c12783          	lw	a5,60(sp)
 174:	04012803          	lw	a6,64(sp)
 178:	04412883          	lw	a7,68(sp)
 17c:	04812903          	lw	s2,72(sp)
 180:	04c12983          	lw	s3,76(sp)
 184:	05012a03          	lw	s4,80(sp)
 188:	05412a83          	lw	s5,84(sp)
 18c:	05812b03          	lw	s6,88(sp)
 190:	05c12b83          	lw	s7,92(sp)
 194:	06012c03          	lw	s8,96(sp)
 198:	06412c83          	lw	s9,100(sp)
 19c:	06812d03          	lw	s10,104(sp)
 1a0:	06c12d83          	lw	s11,108(sp)
 1a4:	07012e03          	lw	t3,112(sp)
 1a8:	07412e83          	lw	t4,116(sp)
 1ac:	07812f03          	lw	t5,120(sp)
 1b0:	07c12f83          	lw	t6,124(sp)
 1b4:	08010113          	addi	sp,sp,128
 1b8:	30200073          	mret
 1bc:	0000                	unimp
 1be:	0000                	unimp

000001c0 <main>:
 1c0:	fe010113          	addi	sp,sp,-32
 1c4:	00812e23          	sw	s0,28(sp)
 1c8:	02010413          	addi	s0,sp,32
 1cc:	00100793          	li	a5,1
 1d0:	fef42623          	sw	a5,-20(s0)
 1d4:	00100793          	li	a5,1
 1d8:	fef42423          	sw	a5,-24(s0)
 1dc:	fec42703          	lw	a4,-20(s0)
 1e0:	fe842783          	lw	a5,-24(s0)
 1e4:	00f707b3          	add	a5,a4,a5
 1e8:	fef42223          	sw	a5,-28(s0)
 1ec:	00000793          	li	a5,0
 1f0:	00078513          	mv	a0,a5
 1f4:	01c12403          	lw	s0,28(sp)
 1f8:	02010113          	addi	sp,sp,32
 1fc:	00008067          	ret

00000200 <read_word>:
 200:	fe010113          	addi	sp,sp,-32
 204:	00812e23          	sw	s0,28(sp)
 208:	02010413          	addi	s0,sp,32
 20c:	fea42623          	sw	a0,-20(s0)
 210:	fec42783          	lw	a5,-20(s0)
 214:	0007a783          	lw	a5,0(a5)
 218:	00078513          	mv	a0,a5
 21c:	01c12403          	lw	s0,28(sp)
 220:	02010113          	addi	sp,sp,32
 224:	00008067          	ret

00000228 <write_word>:
 228:	fe010113          	addi	sp,sp,-32
 22c:	00812e23          	sw	s0,28(sp)
 230:	02010413          	addi	s0,sp,32
 234:	fea42623          	sw	a0,-20(s0)
 238:	feb42423          	sw	a1,-24(s0)
 23c:	fec42783          	lw	a5,-20(s0)
 240:	fe842703          	lw	a4,-24(s0)
 244:	00e7a023          	sw	a4,0(a5)
 248:	00000013          	nop
 24c:	01c12403          	lw	s0,28(sp)
 250:	02010113          	addi	sp,sp,32
 254:	00008067          	ret

00000258 <interrupt_complete>:
 258:	fd010113          	addi	sp,sp,-48
 25c:	02812623          	sw	s0,44(sp)
 260:	03010413          	addi	s0,sp,48
 264:	fca42e23          	sw	a0,-36(s0)
 268:	400607b7          	lui	a5,0x40060
 26c:	01078793          	addi	a5,a5,16 # 40060010 <__stack_top+0x3005f010>
 270:	fef42623          	sw	a5,-20(s0)
 274:	fec42783          	lw	a5,-20(s0)
 278:	fdc42703          	lw	a4,-36(s0)
 27c:	00e7a023          	sw	a4,0(a5)
 280:	00018713          	mv	a4,gp
 284:	fdc42783          	lw	a5,-36(s0)
 288:	00479793          	slli	a5,a5,0x4
 28c:	00f707b3          	add	a5,a4,a5
 290:	00200713          	li	a4,2
 294:	00e7a423          	sw	a4,8(a5)
 298:	00018713          	mv	a4,gp
 29c:	fdc42783          	lw	a5,-36(s0)
 2a0:	00479793          	slli	a5,a5,0x4
 2a4:	00f707b3          	add	a5,a4,a5
 2a8:	00c7a783          	lw	a5,12(a5)
 2ac:	00178713          	addi	a4,a5,1
 2b0:	00018693          	mv	a3,gp
 2b4:	fdc42783          	lw	a5,-36(s0)
 2b8:	00479793          	slli	a5,a5,0x4
 2bc:	00f687b3          	add	a5,a3,a5
 2c0:	00e7a623          	sw	a4,12(a5)
 2c4:	00000013          	nop
 2c8:	02c12403          	lw	s0,44(sp)
 2cc:	03010113          	addi	sp,sp,48
 2d0:	00008067          	ret

000002d4 <configure_interrupt_pin>:
 2d4:	fe010113          	addi	sp,sp,-32
 2d8:	00812e23          	sw	s0,28(sp)
 2dc:	02010413          	addi	s0,sp,32
 2e0:	fea42623          	sw	a0,-20(s0)
 2e4:	00000013          	nop
 2e8:	01c12403          	lw	s0,28(sp)
 2ec:	02010113          	addi	sp,sp,32
 2f0:	00008067          	ret

000002f4 <interrupt_claim_request>:
 2f4:	fe010113          	addi	sp,sp,-32
 2f8:	00812e23          	sw	s0,28(sp)
 2fc:	02010413          	addi	s0,sp,32
 300:	fe042623          	sw	zero,-20(s0)
 304:	400607b7          	lui	a5,0x40060
 308:	01078793          	addi	a5,a5,16 # 40060010 <__stack_top+0x3005f010>
 30c:	fef42623          	sw	a5,-20(s0)
 310:	fec42783          	lw	a5,-20(s0)
 314:	0007a783          	lw	a5,0(a5)
 318:	fef42423          	sw	a5,-24(s0)
 31c:	fe842783          	lw	a5,-24(s0)
 320:	00078513          	mv	a0,a5
 324:	01c12403          	lw	s0,28(sp)
 328:	02010113          	addi	sp,sp,32
 32c:	00008067          	ret

00000330 <mach_plic_handler>:
 330:	fd010113          	addi	sp,sp,-48
 334:	02112623          	sw	ra,44(sp)
 338:	02812423          	sw	s0,40(sp)
 33c:	03010413          	addi	s0,sp,48
 340:	fca42e23          	sw	a0,-36(s0)
 344:	fcb42c23          	sw	a1,-40(s0)
 348:	fadff0ef          	jal	ra,2f4 <interrupt_claim_request>
 34c:	fea42623          	sw	a0,-20(s0)
 350:	00018713          	mv	a4,gp
 354:	fec42783          	lw	a5,-20(s0)
 358:	00479793          	slli	a5,a5,0x4
 35c:	00f707b3          	add	a5,a4,a5
 360:	00100713          	li	a4,1
 364:	00e7a423          	sw	a4,8(a5)
 368:	14018713          	addi	a4,gp,320 # 10000140 <isr_table>
 36c:	fec42783          	lw	a5,-20(s0)
 370:	00279793          	slli	a5,a5,0x2
 374:	00f707b3          	add	a5,a4,a5
 378:	0007a783          	lw	a5,0(a5)
 37c:	fec42503          	lw	a0,-20(s0)
 380:	000780e7          	jalr	a5
 384:	fec42503          	lw	a0,-20(s0)
 388:	ed1ff0ef          	jal	ra,258 <interrupt_complete>
 38c:	00000013          	nop
 390:	02c12083          	lw	ra,44(sp)
 394:	02812403          	lw	s0,40(sp)
 398:	03010113          	addi	sp,sp,48
 39c:	00008067          	ret

000003a0 <interrupt_enable>:
 3a0:	fd010113          	addi	sp,sp,-48
 3a4:	02812623          	sw	s0,44(sp)
 3a8:	03010413          	addi	s0,sp,48
 3ac:	fca42e23          	sw	a0,-36(s0)
 3b0:	fe0407a3          	sb	zero,-17(s0)
 3b4:	fdc42783          	lw	a5,-36(s0)
 3b8:	0037d713          	srli	a4,a5,0x3
 3bc:	400527b7          	lui	a5,0x40052
 3c0:	00f707b3          	add	a5,a4,a5
 3c4:	fef42423          	sw	a5,-24(s0)
 3c8:	fe842783          	lw	a5,-24(s0)
 3cc:	0007c783          	lbu	a5,0(a5) # 40052000 <__stack_top+0x30051000>
 3d0:	fef407a3          	sb	a5,-17(s0)
 3d4:	fdc42783          	lw	a5,-36(s0)
 3d8:	0077f793          	andi	a5,a5,7
 3dc:	00100713          	li	a4,1
 3e0:	00f717b3          	sll	a5,a4,a5
 3e4:	01879713          	slli	a4,a5,0x18
 3e8:	41875713          	srai	a4,a4,0x18
 3ec:	fef40783          	lb	a5,-17(s0)
 3f0:	00f767b3          	or	a5,a4,a5
 3f4:	01879793          	slli	a5,a5,0x18
 3f8:	4187d793          	srai	a5,a5,0x18
 3fc:	fef403a3          	sb	a5,-25(s0)
 400:	fe842783          	lw	a5,-24(s0)
 404:	fe744703          	lbu	a4,-25(s0)
 408:	00e78023          	sb	a4,0(a5)
 40c:	00000013          	nop
 410:	02c12403          	lw	s0,44(sp)
 414:	03010113          	addi	sp,sp,48
 418:	00008067          	ret

0000041c <interrupt_disable>:
 41c:	fd010113          	addi	sp,sp,-48
 420:	02812623          	sw	s0,44(sp)
 424:	03010413          	addi	s0,sp,48
 428:	fca42e23          	sw	a0,-36(s0)
 42c:	fe042623          	sw	zero,-20(s0)
 430:	fe0405a3          	sb	zero,-21(s0)
 434:	fdc42783          	lw	a5,-36(s0)
 438:	0037d713          	srli	a4,a5,0x3
 43c:	400527b7          	lui	a5,0x40052
 440:	00f707b3          	add	a5,a4,a5
 444:	fef42623          	sw	a5,-20(s0)
 448:	fec42783          	lw	a5,-20(s0)
 44c:	0007c783          	lbu	a5,0(a5) # 40052000 <__stack_top+0x30051000>
 450:	fef405a3          	sb	a5,-21(s0)
 454:	fdc42783          	lw	a5,-36(s0)
 458:	0077f793          	andi	a5,a5,7
 45c:	00100713          	li	a4,1
 460:	00f717b3          	sll	a5,a4,a5
 464:	01879793          	slli	a5,a5,0x18
 468:	4187d793          	srai	a5,a5,0x18
 46c:	fff7c793          	not	a5,a5
 470:	01879713          	slli	a4,a5,0x18
 474:	41875713          	srai	a4,a4,0x18
 478:	feb40783          	lb	a5,-21(s0)
 47c:	00f777b3          	and	a5,a4,a5
 480:	01879793          	slli	a5,a5,0x18
 484:	4187d793          	srai	a5,a5,0x18
 488:	fef40523          	sb	a5,-22(s0)
 48c:	fec42783          	lw	a5,-20(s0)
 490:	fea44703          	lbu	a4,-22(s0)
 494:	00e78023          	sb	a4,0(a5)
 498:	00018713          	mv	a4,gp
 49c:	fdc42783          	lw	a5,-36(s0)
 4a0:	00479793          	slli	a5,a5,0x4
 4a4:	00f707b3          	add	a5,a4,a5
 4a8:	0007a423          	sw	zero,8(a5)
 4ac:	00000013          	nop
 4b0:	02c12403          	lw	s0,44(sp)
 4b4:	03010113          	addi	sp,sp,48
 4b8:	00008067          	ret

000004bc <set_interrupt_threshold>:
 4bc:	fd010113          	addi	sp,sp,-48
 4c0:	02812623          	sw	s0,44(sp)
 4c4:	03010413          	addi	s0,sp,48
 4c8:	fca42e23          	sw	a0,-36(s0)
 4cc:	fe042623          	sw	zero,-20(s0)
 4d0:	400607b7          	lui	a5,0x40060
 4d4:	fef42623          	sw	a5,-20(s0)
 4d8:	fec42783          	lw	a5,-20(s0)
 4dc:	fdc42703          	lw	a4,-36(s0)
 4e0:	00e7a023          	sw	a4,0(a5) # 40060000 <__stack_top+0x3005f000>
 4e4:	00000013          	nop
 4e8:	02c12403          	lw	s0,44(sp)
 4ec:	03010113          	addi	sp,sp,48
 4f0:	00008067          	ret

000004f4 <set_interrupt_priority>:
 4f4:	fd010113          	addi	sp,sp,-48
 4f8:	02812623          	sw	s0,44(sp)
 4fc:	03010413          	addi	s0,sp,48
 500:	fca42e23          	sw	a0,-36(s0)
 504:	fcb42c23          	sw	a1,-40(s0)
 508:	fd842783          	lw	a5,-40(s0)
 50c:	00279713          	slli	a4,a5,0x2
 510:	400507b7          	lui	a5,0x40050
 514:	00f707b3          	add	a5,a4,a5
 518:	fef42623          	sw	a5,-20(s0)
 51c:	fec42783          	lw	a5,-20(s0)
 520:	fdc42703          	lw	a4,-36(s0)
 524:	00e7a023          	sw	a4,0(a5) # 40050000 <__stack_top+0x3004f000>
 528:	00000013          	nop
 52c:	02c12403          	lw	s0,44(sp)
 530:	03010113          	addi	sp,sp,48
 534:	00008067          	ret

00000538 <isr_default>:
 538:	fe010113          	addi	sp,sp,-32
 53c:	00812e23          	sw	s0,28(sp)
 540:	02010413          	addi	s0,sp,32
 544:	fea42623          	sw	a0,-20(s0)
 548:	00000013          	nop
 54c:	01c12403          	lw	s0,28(sp)
 550:	02010113          	addi	sp,sp,32
 554:	00008067          	ret

00000558 <plic_init>:
 558:	fe010113          	addi	sp,sp,-32
 55c:	00112e23          	sw	ra,28(sp)
 560:	00812c23          	sw	s0,24(sp)
 564:	02010413          	addi	s0,sp,32
 568:	fe042623          	sw	zero,-20(s0)
 56c:	19018793          	addi	a5,gp,400 # 10000190 <mcause_interrupt_table>
 570:	00000717          	auipc	a4,0x0
 574:	dc070713          	addi	a4,a4,-576 # 330 <mach_plic_handler>
 578:	00e7a023          	sw	a4,0(a5)
 57c:	00018793          	mv	a5,gp
 580:	0007a423          	sw	zero,8(a5)
 584:	00018793          	mv	a5,gp
 588:	0007a023          	sw	zero,0(a5)
 58c:	00018793          	mv	a5,gp
 590:	0007a223          	sw	zero,4(a5)
 594:	00018793          	mv	a5,gp
 598:	0007a623          	sw	zero,12(a5)
 59c:	00100793          	li	a5,1
 5a0:	fef42623          	sw	a5,-20(s0)
 5a4:	0980006f          	j	63c <plic_init+0xe4>
 5a8:	00018713          	mv	a4,gp
 5ac:	fec42783          	lw	a5,-20(s0)
 5b0:	00479793          	slli	a5,a5,0x4
 5b4:	00f707b3          	add	a5,a4,a5
 5b8:	0007a423          	sw	zero,8(a5)
 5bc:	00018713          	mv	a4,gp
 5c0:	fec42783          	lw	a5,-20(s0)
 5c4:	00479793          	slli	a5,a5,0x4
 5c8:	00f707b3          	add	a5,a4,a5
 5cc:	fec42703          	lw	a4,-20(s0)
 5d0:	00e7a023          	sw	a4,0(a5)
 5d4:	00018713          	mv	a4,gp
 5d8:	fec42783          	lw	a5,-20(s0)
 5dc:	00479793          	slli	a5,a5,0x4
 5e0:	00f707b3          	add	a5,a4,a5
 5e4:	00200713          	li	a4,2
 5e8:	00e7a223          	sw	a4,4(a5)
 5ec:	00018713          	mv	a4,gp
 5f0:	fec42783          	lw	a5,-20(s0)
 5f4:	00479793          	slli	a5,a5,0x4
 5f8:	00f707b3          	add	a5,a4,a5
 5fc:	0007a623          	sw	zero,12(a5)
 600:	fec42503          	lw	a0,-20(s0)
 604:	e19ff0ef          	jal	ra,41c <interrupt_disable>
 608:	14018713          	addi	a4,gp,320 # 10000140 <isr_table>
 60c:	fec42783          	lw	a5,-20(s0)
 610:	00279793          	slli	a5,a5,0x2
 614:	00f707b3          	add	a5,a4,a5
 618:	00000717          	auipc	a4,0x0
 61c:	f2070713          	addi	a4,a4,-224 # 538 <isr_default>
 620:	00e7a023          	sw	a4,0(a5)
 624:	fec42583          	lw	a1,-20(s0)
 628:	00200513          	li	a0,2
 62c:	ec9ff0ef          	jal	ra,4f4 <set_interrupt_priority>
 630:	fec42783          	lw	a5,-20(s0)
 634:	00178793          	addi	a5,a5,1
 638:	fef42623          	sw	a5,-20(s0)
 63c:	fec42703          	lw	a4,-20(s0)
 640:	01300793          	li	a5,19
 644:	f6e7f2e3          	bgeu	a5,a4,5a8 <plic_init+0x50>
 648:	00100513          	li	a0,1
 64c:	e71ff0ef          	jal	ra,4bc <set_interrupt_threshold>
 650:	00000013          	nop
 654:	01c12083          	lw	ra,28(sp)
 658:	01812403          	lw	s0,24(sp)
 65c:	02010113          	addi	sp,sp,32
 660:	00008067          	ret

00000664 <configure_interrupt>:
 664:	fe010113          	addi	sp,sp,-32
 668:	00112e23          	sw	ra,28(sp)
 66c:	00812c23          	sw	s0,24(sp)
 670:	02010413          	addi	s0,sp,32
 674:	fea42623          	sw	a0,-20(s0)
 678:	fec42703          	lw	a4,-20(s0)
 67c:	00600793          	li	a5,6
 680:	00e7fc63          	bgeu	a5,a4,698 <configure_interrupt+0x34>
 684:	fec42703          	lw	a4,-20(s0)
 688:	01500793          	li	a5,21
 68c:	00e7e663          	bltu	a5,a4,698 <configure_interrupt+0x34>
 690:	fec42503          	lw	a0,-20(s0)
 694:	c41ff0ef          	jal	ra,2d4 <configure_interrupt_pin>
 698:	fec42503          	lw	a0,-20(s0)
 69c:	d05ff0ef          	jal	ra,3a0 <interrupt_enable>
 6a0:	00000013          	nop
 6a4:	01c12083          	lw	ra,28(sp)
 6a8:	01812403          	lw	s0,24(sp)
 6ac:	02010113          	addi	sp,sp,32
 6b0:	00008067          	ret

000006b4 <extract_ie_code>:
 6b4:	fd010113          	addi	sp,sp,-48
 6b8:	02812623          	sw	s0,44(sp)
 6bc:	03010413          	addi	s0,sp,48
 6c0:	fca42e23          	sw	a0,-36(s0)
 6c4:	fdc42703          	lw	a4,-36(s0)
 6c8:	800007b7          	lui	a5,0x80000
 6cc:	fff7c793          	not	a5,a5
 6d0:	00f777b3          	and	a5,a4,a5
 6d4:	fef42623          	sw	a5,-20(s0)
 6d8:	fec42783          	lw	a5,-20(s0)
 6dc:	00078513          	mv	a0,a5
 6e0:	02c12403          	lw	s0,44(sp)
 6e4:	03010113          	addi	sp,sp,48
 6e8:	00008067          	ret

000006ec <default_handler>:
 6ec:	fe010113          	addi	sp,sp,-32
 6f0:	00812e23          	sw	s0,28(sp)
 6f4:	02010413          	addi	s0,sp,32
 6f8:	fea42623          	sw	a0,-20(s0)
 6fc:	feb42423          	sw	a1,-24(s0)
 700:	0000006f          	j	700 <default_handler+0x14>

00000704 <handle_trap>:
 704:	fd010113          	addi	sp,sp,-48
 708:	02112623          	sw	ra,44(sp)
 70c:	02812423          	sw	s0,40(sp)
 710:	03010413          	addi	s0,sp,48
 714:	fca42e23          	sw	a0,-36(s0)
 718:	fcb42c23          	sw	a1,-40(s0)
 71c:	fe042623          	sw	zero,-20(s0)
 720:	fe042423          	sw	zero,-24(s0)
 724:	01f00793          	li	a5,31
 728:	fef42423          	sw	a5,-24(s0)
 72c:	fe842783          	lw	a5,-24(s0)
 730:	00100713          	li	a4,1
 734:	00f717b3          	sll	a5,a4,a5
 738:	00078713          	mv	a4,a5
 73c:	fdc42783          	lw	a5,-36(s0)
 740:	00f777b3          	and	a5,a4,a5
 744:	02078a63          	beqz	a5,778 <handle_trap+0x74>
 748:	fdc42503          	lw	a0,-36(s0)
 74c:	f69ff0ef          	jal	ra,6b4 <extract_ie_code>
 750:	fea42623          	sw	a0,-20(s0)
 754:	19018713          	addi	a4,gp,400 # 10000190 <mcause_interrupt_table>
 758:	fec42783          	lw	a5,-20(s0)
 75c:	00279793          	slli	a5,a5,0x2
 760:	00f707b3          	add	a5,a4,a5
 764:	0007a783          	lw	a5,0(a5) # 80000000 <__stack_top+0x6ffff000>
 768:	fd842583          	lw	a1,-40(s0)
 76c:	fdc42503          	lw	a0,-36(s0)
 770:	000780e7          	jalr	a5
 774:	0240006f          	j	798 <handle_trap+0x94>
 778:	19418713          	addi	a4,gp,404 # 10000194 <mcause_trap_table>
 77c:	fdc42783          	lw	a5,-36(s0)
 780:	00279793          	slli	a5,a5,0x2
 784:	00f707b3          	add	a5,a4,a5
 788:	0007a783          	lw	a5,0(a5)
 78c:	fd842583          	lw	a1,-40(s0)
 790:	fdc42503          	lw	a0,-36(s0)
 794:	000780e7          	jalr	a5
 798:	fd842783          	lw	a5,-40(s0)
 79c:	00078513          	mv	a0,a5
 7a0:	02c12083          	lw	ra,44(sp)
 7a4:	02812403          	lw	s0,40(sp)
 7a8:	03010113          	addi	sp,sp,48
 7ac:	00008067          	ret

000007b0 <trap_init>:
 7b0:	ff010113          	addi	sp,sp,-16
 7b4:	00812623          	sw	s0,12(sp)
 7b8:	01010413          	addi	s0,sp,16
 7bc:	19018793          	addi	a5,gp,400 # 10000190 <mcause_interrupt_table>
 7c0:	00000717          	auipc	a4,0x0
 7c4:	b7070713          	addi	a4,a4,-1168 # 330 <mach_plic_handler>
 7c8:	00e7a023          	sw	a4,0(a5)
 7cc:	19418793          	addi	a5,gp,404 # 10000194 <mcause_trap_table>
 7d0:	00000717          	auipc	a4,0x0
 7d4:	f1c70713          	addi	a4,a4,-228 # 6ec <default_handler>
 7d8:	00e7a023          	sw	a4,0(a5)
 7dc:	00000013          	nop
 7e0:	00c12403          	lw	s0,12(sp)
 7e4:	01010113          	addi	sp,sp,16
 7e8:	00008067          	ret

000007ec <init>:
 7ec:	ff010113          	addi	sp,sp,-16
 7f0:	00112623          	sw	ra,12(sp)
 7f4:	00812423          	sw	s0,8(sp)
 7f8:	01010413          	addi	s0,sp,16
 7fc:	fb5ff0ef          	jal	ra,7b0 <trap_init>
 800:	9c1ff0ef          	jal	ra,1c0 <main>
 804:	00000013          	nop
 808:	00c12083          	lw	ra,12(sp)
 80c:	00812403          	lw	s0,8(sp)
 810:	01010113          	addi	sp,sp,16
 814:	00008067          	ret
