
/home/merl/github_repos/azadi/tests/asm/output/add.merl:     file format elf32-littleriscv


Disassembly of section .init:

00000000 <_start>:
   0:	00000297          	auipc	t0,0x0
   4:	0a028293          	addi	t0,t0,160 # a0 <_stext>
   8:	30529073          	csrw	mtvec,t0
   c:	00000093          	li	ra,0
  10:	00000113          	li	sp,0
  14:	00000193          	li	gp,0
  18:	00000213          	li	tp,0
  1c:	00000293          	li	t0,0
  20:	00000313          	li	t1,0
  24:	00000393          	li	t2,0
  28:	00000413          	li	s0,0
  2c:	00000493          	li	s1,0
  30:	00000513          	li	a0,0
  34:	00000593          	li	a1,0
  38:	00000613          	li	a2,0
  3c:	00000693          	li	a3,0
  40:	00000713          	li	a4,0
  44:	00000793          	li	a5,0
  48:	00000813          	li	a6,0
  4c:	00000893          	li	a7,0
  50:	00000913          	li	s2,0
  54:	00000993          	li	s3,0
  58:	00000a13          	li	s4,0
  5c:	00000a93          	li	s5,0
  60:	00000b13          	li	s6,0
  64:	00000b93          	li	s7,0
  68:	00000c13          	li	s8,0
  6c:	00000c93          	li	s9,0
  70:	00000d13          	li	s10,0
  74:	00000d93          	li	s11,0
  78:	00000e13          	li	t3,0
  7c:	00000e93          	li	t4,0
  80:	00000f13          	li	t5,0
  84:	00000f93          	li	t6,0
  88:	10000197          	auipc	gp,0x10000
  8c:	f7818193          	addi	gp,gp,-136 # 10000000 <__global_pointer$>
  90:	10001117          	auipc	sp,0x10001
  94:	f7010113          	addi	sp,sp,-144 # 10001000 <__stack_top>
  98:	00010433          	add	s0,sp,zero
  9c:	1240006f          	j	1c0 <main>

Disassembly of section .text:

000000a0 <_stext>:
  a0:	f8010113          	addi	sp,sp,-128
  a4:	00000013          	nop
  a8:	00112223          	sw	ra,4(sp)
  ac:	00212423          	sw	sp,8(sp)
  b0:	00312623          	sw	gp,12(sp)
  b4:	00412823          	sw	tp,16(sp)
  b8:	00512a23          	sw	t0,20(sp)
  bc:	00612c23          	sw	t1,24(sp)
  c0:	00712e23          	sw	t2,28(sp)
  c4:	02812023          	sw	s0,32(sp)
  c8:	02912223          	sw	s1,36(sp)
  cc:	02a12423          	sw	a0,40(sp)
  d0:	02b12623          	sw	a1,44(sp)
  d4:	02c12823          	sw	a2,48(sp)
  d8:	02d12a23          	sw	a3,52(sp)
  dc:	02e12c23          	sw	a4,56(sp)
  e0:	02f12e23          	sw	a5,60(sp)
  e4:	05012023          	sw	a6,64(sp)
  e8:	05112223          	sw	a7,68(sp)
  ec:	05212423          	sw	s2,72(sp)
  f0:	05312623          	sw	s3,76(sp)
  f4:	05412823          	sw	s4,80(sp)
  f8:	05512a23          	sw	s5,84(sp)
  fc:	05612c23          	sw	s6,88(sp)
 100:	05712e23          	sw	s7,92(sp)
 104:	07812023          	sw	s8,96(sp)
 108:	07912223          	sw	s9,100(sp)
 10c:	07a12423          	sw	s10,104(sp)
 110:	07b12623          	sw	s11,108(sp)
 114:	07c12823          	sw	t3,112(sp)
 118:	07d12a23          	sw	t4,116(sp)
 11c:	07e12c23          	sw	t5,120(sp)
 120:	07f12e23          	sw	t6,124(sp)
 124:	34202573          	csrr	a0,mcause
 128:	341025f3          	csrr	a1,mepc
 12c:	00010613          	mv	a2,sp
 130:	5d4000ef          	jal	ra,704 <handle_trap>
 134:	34151073          	csrw	mepc,a0
 138:	00412083          	lw	ra,4(sp)
 13c:	00812103          	lw	sp,8(sp)
 140:	00c12183          	lw	gp,12(sp)
 144:	01012203          	lw	tp,16(sp)
 148:	01412283          	lw	t0,20(sp)
 14c:	01812303          	lw	t1,24(sp)
 150:	01c12383          	lw	t2,28(sp)
 154:	02012403          	lw	s0,32(sp)
 158:	02412483          	lw	s1,36(sp)
 15c:	02812503          	lw	a0,40(sp)
 160:	02c12583          	lw	a1,44(sp)
 164:	03012603          	lw	a2,48(sp)
 168:	03412683          	lw	a3,52(sp)
 16c:	03812703          	lw	a4,56(sp)
 170:	03c12783          	lw	a5,60(sp)
 174:	04012803          	lw	a6,64(sp)
 178:	04412883          	lw	a7,68(sp)
 17c:	04812903          	lw	s2,72(sp)
 180:	04c12983          	lw	s3,76(sp)
 184:	05012a03          	lw	s4,80(sp)
 188:	05412a83          	lw	s5,84(sp)
 18c:	05812b03          	lw	s6,88(sp)
 190:	05c12b83          	lw	s7,92(sp)
 194:	06012c03          	lw	s8,96(sp)
 198:	06412c83          	lw	s9,100(sp)
 19c:	06812d03          	lw	s10,104(sp)
 1a0:	06c12d83          	lw	s11,108(sp)
 1a4:	07012e03          	lw	t3,112(sp)
 1a8:	07412e83          	lw	t4,116(sp)
 1ac:	07812f03          	lw	t5,120(sp)
 1b0:	07c12f83          	lw	t6,124(sp)
 1b4:	08010113          	addi	sp,sp,128
 1b8:	30200073          	mret
 1bc:	0000                	unimp
 1be:	0000                	unimp

000001c0 <main>:
 1c0:	fe010113          	addi	sp,sp,-32
 1c4:	00812e23          	sw	s0,28(sp)
 1c8:	02010413          	addi	s0,sp,32
 1cc:	00100793          	li	a5,1
 1d0:	fef42623          	sw	a5,-20(s0)
 1d4:	00100793          	li	a5,1
 1d8:	fef42423          	sw	a5,-24(s0)
 1dc:	fec42703          	lw	a4,-20(s0)
 1e0:	fe842783          	lw	a5,-24(s0)
 1e4:	00f707b3          	add	a5,a4,a5
 1e8:	fef42223          	sw	a5,-28(s0)
 1ec:	00000793          	li	a5,0
 1f0:	00078513          	mv	a0,a5
 1f4:	01c12403          	lw	s0,28(sp)
 1f8:	02010113          	addi	sp,sp,32
 1fc:	00008067          	ret

00000200 <read_word>:
 200:	fe010113          	addi	sp,sp,-32
 204:	00812e23          	sw	s0,28(sp)
 208:	02010413          	addi	s0,sp,32
 20c:	fea42623          	sw	a0,-20(s0)
 210:	fec42783          	lw	a5,-20(s0)
 214:	0007a783          	lw	a5,0(a5)
 218:	00078513          	mv	a0,a5
 21c:	01c12403          	lw	s0,28(sp)
 220:	02010113          	addi	sp,sp,32
 224:	00008067          	ret

00000228 <write_word>:
 228:	fe010113          	addi	sp,sp,-32
 22c:	00812e23          	sw	s0,28(sp)
 230:	02010413          	addi	s0,sp,32
 234:	fea42623          	sw	a0,-20(s0)
 238:	feb42423          	sw	a1,-24(s0)
 23c:	fec42783          	lw	a5,-20(s0)
 240:	fe842703          	lw	a4,-24(s0)
 244:	00e7a023          	sw	a4,0(a5)
 248:	00000013          	nop
 24c:	01c12403          	lw	s0,28(sp)
 250:	02010113          	addi	sp,sp,32
 254:	00008067          	ret

00000258 <interrupt_complete>:
 258:	fd010113          	addi	sp,sp,-48
 25c:	02812623          	sw	s0,44(sp)
 260:	03010413          	addi	s0,sp,48
 264:	fca42e23          	sw	a0,-36(s0)
 268:	400607b7          	lui	a5,0x40060
 26c:	01078793          	addi	a5,a5,16 # 40060010 <__stack_top+0x3005f010>
 270:	fef42623          	sw	a5,-20(s0)
 274:	fec42783          	lw	a5,-20(s0)
 278:	fdc42703          	lw	a4,-36(s0)
 27c:	00e7a023          	sw	a4,0(a5)
 280:	00018713          	mv	a4,gp
 284:	fdc42783          	lw	a5,-36(s0)
 288:	00479793          	slli	a5,a5,0x4
 28c:	00f707b3          	add	a5,a4,a5
 290:	00200713          	li	a4,2
 294:	00e7a423          	sw	a4,8(a5)
 298:	00018713          	mv	a4,gp
 29c:	fdc42783          	lw	a5,-36(s0)
 2a0:	00479793          	slli	a5,a5,0x4
 2a4:	00f707b3          	add	a5,a4,a5
 2a8:	00c7a783          	lw	a5,12(a5)
 2ac:	00178713          	addi	a4,a5,1
 2b0:	00018693          	mv	a3,gp
 2b4:	fdc42783          	lw	a5,-36(s0)
 2b8:	00479793          	slli	a5,a5,0x4
 2bc:	00f687b3          	add	a5,a3,a5
 2c0:	00e7a623          	sw	a4,12(a5)
 2c4:	00000013          	nop
 2c8:	02c12403          	lw	s0,44(sp)
 2cc:	03010113          	addi	sp,sp,48
 2d0:	00008067          	ret

000002d4 <configure_interrupt_pin>:
 2d4:	fe010113          	addi	sp,sp,-32
 2d8:	00812e23          	sw	s0,28(sp)
 2dc:	02010413          	addi	s0,sp,32
 2e0:	fea42623          	sw	a0,-20(s0)
 2e4:	00000013          	nop
 2e8:	01c12403          	lw	s0,28(sp)
 2ec:	02010113          	addi	sp,sp,32
 2f0:	00008067          	ret

000002f4 <interrupt_claim_request>:
 2f4:	fe010113          	addi	sp,sp,-32
 2f8:	00812e23          	sw	s0,28(sp)
 2fc:	02010413          	addi	s0,sp,32
 300:	fe042623          	sw	zero,-20(s0)
 304:	400607b7          	lui	a5,0x40060
 308:	01078793          	addi	a5,a5,16 # 40060010 <__stack_top+0x3005f010>
 30c:	fef42623          	sw	a5,-20(s0)
 310:	fec42783          	lw	a5,-20(s0)
 314:	0007a783          	lw	a5,0(a5)
 318:	fef42423          	sw	a5,-24(s0)
 31c:	fe842783          	lw	a5,-24(s0)
 320:	00078513          	mv	a0,a5
 324:	01c12403          	lw	s0,28(sp)
 328:	02010113          	addi	sp,sp,32
 32c:	00008067          	ret

00000330 <mach_plic_handler>:
 330:	fd010113          	addi	sp,sp,-48
 334:	02112623          	sw	ra,44(sp)
 338:	02812423          	sw	s0,40(sp)
 33c:	03010413          	addi	s0,sp,48
 340:	fca42e23          	sw	a0,-36(s0)
 344:	fcb42c23          	sw	a1,-40(s0)
 348:	fadff0ef          	jal	ra,2f4 <interrupt_claim_request>
 34c:	fea42623          	sw	a0,-20(s0)
 350:	00018713          	mv	a4,gp
 354:	fec42783          	lw	a5,-20(s0)
 358:	00479793          	slli	a5,a5,0x4
 35c:	00f707b3          	add	a5,a4,a5
 360:	00100713          	li	a4,1
 364:	00e7a423          	sw	a4,8(a5)
 368:	14018713          	addi	a4,gp,320 # 10000140 <isr_table>
 36c:	fec42783          	lw	a5,-20(s0)
 370:	00279793          	slli	a5,a5,0x2
 374:	00f707b3          	add	a5,a4,a5
 378:	0007a783          	lw	a5,0(a5)
 37c:	fec42503          	lw	a0,-20(s0)
 380:	000780e7          	jalr	a5
 384:	fec42503          	lw	a0,-20(s0)
 388:	ed1ff0ef          	jal	ra,258 <interrupt_complete>
 38c:	00000013          	nop
 390:	02c12083          	lw	ra,44(sp)
 394:	02812403          	lw	s0,40(sp)
 398:	03010113          	addi	sp,sp,48
 39c:	00008067          	ret

000003a0 <interrupt_enable>:
 3a0:	fd010113          	addi	sp,sp,-48
 3a4:	02812623          	sw	s0,44(sp)
 3a8:	03010413          	addi	s0,sp,48
 3ac:	fca42e23          	sw	a0,-36(s0)
 3b0:	fe0407a3          	sb	zero,-17(s0)
 3b4:	fdc42783          	lw	a5,-36(s0)
 3b8:	0037d713          	srli	a4,a5,0x3
 3bc:	400527b7          	lui	a5,0x40052
 3c0:	00f707b3          	add	a5,a4,a5
 3c4:	fef42423          	sw	a5,-24(s0)
 3c8:	fe842783          	lw	a5,-24(s0)
 3cc:	0007c783          	lbu	a5,0(a5) # 40052000 <__stack_top+0x30051000>
 3d0:	fef407a3          	sb	a5,-17(s0)
 3d4:	fdc42783          	lw	a5,-36(s0)
 3d8:	0077f793          	andi	a5,a5,7
 3dc:	00100713          	li	a4,1
 3e0:	00f717b3          	sll	a5,a4,a5
 3e4:	01879713          	slli	a4,a5,0x18
 3e8:	41875713          	srai	a4,a4,0x18
 3ec:	fef40783          	lb	a5,-17(s0)
 3f0:	00f767b3          	or	a5,a4,a5
 3f4:	01879793          	slli	a5,a5,0x18
 3f8:	4187d793          	srai	a5,a5,0x18
 3fc:	fef403a3          	sb	a5,-25(s0)
 400:	fe842783          	lw	a5,-24(s0)
 404:	fe744703          	lbu	a4,-25(s0)
 408:	00e78023          	sb	a4,0(a5)
 40c:	00000013          	nop
 410:	02c12403          	lw	s0,44(sp)
 414:	03010113          	addi	sp,sp,48
 418:	00008067          	ret

0000041c <interrupt_disable>:
 41c:	fd010113          	addi	sp,sp,-48
 420:	02812623          	sw	s0,44(sp)
 424:	03010413          	addi	s0,sp,48
 428:	fca42e23          	sw	a0,-36(s0)
 42c:	fe042623          	sw	zero,-20(s0)
 430:	fe0405a3          	sb	zero,-21(s0)
 434:	fdc42783          	lw	a5,-36(s0)
 438:	0037d713          	srli	a4,a5,0x3
 43c:	400527b7          	lui	a5,0x40052
 440:	00f707b3          	add	a5,a4,a5
 444:	fef42623          	sw	a5,-20(s0)
 448:	fec42783          	lw	a5,-20(s0)
 44c:	0007c783          	lbu	a5,0(a5) # 40052000 <__stack_top+0x30051000>
 450:	fef405a3          	sb	a5,-21(s0)
 454:	fdc42783          	lw	a5,-36(s0)
 458:	0077f793          	andi	a5,a5,7
 45c:	00100713          	li	a4,1
 460:	00f717b3          	sll	a5,a4,a5
 464:	01879793          	slli	a5,a5,0x18
 468:	4187d793          	srai	a5,a5,0x18
 46c:	fff7c793          	not	a5,a5
 470:	01879713          	slli	a4,a5,0x18
 474:	41875713          	srai	a4,a4,0x18
 478:	feb40783          	lb	a5,-21(s0)
 47c:	00f777b3          	and	a5,a4,a5
 480:	01879793          	slli	a5,a5,0x18
 484:	4187d793          	srai	a5,a5,0x18
 488:	fef40523          	sb	a5,-22(s0)
 48c:	fec42783          	lw	a5,-20(s0)
 490:	fea44703          	lbu	a4,-22(s0)
 494:	00e78023          	sb	a4,0(a5)
 498:	00018713          	mv	a4,gp
 49c:	fdc42783          	lw	a5,-36(s0)
 4a0:	00479793          	slli	a5,a5,0x4
 4a4:	00f707b3          	add	a5,a4,a5
 4a8:	0007a423          	sw	zero,8(a5)
 4ac:	00000013          	nop
 4b0:	02c12403          	lw	s0,44(sp)
 4b4:	03010113          	addi	sp,sp,48
 4b8:	00008067          	ret

000004bc <set_interrupt_threshold>:
 4bc:	fd010113          	addi	sp,sp,-48
 4c0:	02812623          	sw	s0,44(sp)
 4c4:	03010413          	addi	s0,sp,48
 4c8:	fca42e23          	sw	a0,-36(s0)
 4cc:	fe042623          	sw	zero,-20(s0)
 4d0:	400607b7          	lui	a5,0x40060
 4d4:	fef42623          	sw	a5,-20(s0)
 4d8:	fec42783          	lw	a5,-20(s0)
 4dc:	fdc42703          	lw	a4,-36(s0)
 4e0:	00e7a023          	sw	a4,0(a5) # 40060000 <__stack_top+0x3005f000>
 4e4:	00000013          	nop
 4e8:	02c12403          	lw	s0,44(sp)
 4ec:	03010113          	addi	sp,sp,48
 4f0:	00008067          	ret

000004f4 <set_interrupt_priority>:
 4f4:	fd010113          	addi	sp,sp,-48
 4f8:	02812623          	sw	s0,44(sp)
 4fc:	03010413          	addi	s0,sp,48
 500:	fca42e23          	sw	a0,-36(s0)
 504:	fcb42c23          	sw	a1,-40(s0)
 508:	fd842783          	lw	a5,-40(s0)
 50c:	00279713          	slli	a4,a5,0x2
 510:	400507b7          	lui	a5,0x40050
 514:	00f707b3          	add	a5,a4,a5
 518:	fef42623          	sw	a5,-20(s0)
 51c:	fec42783          	lw	a5,-20(s0)
 520:	fdc42703          	lw	a4,-36(s0)
 524:	00e7a023          	sw	a4,0(a5) # 40050000 <__stack_top+0x3004f000>
 528:	00000013          	nop
 52c:	02c12403          	lw	s0,44(sp)
 530:	03010113          	addi	sp,sp,48
 534:	00008067          	ret

00000538 <isr_default>:
 538:	fe010113          	addi	sp,sp,-32
 53c:	00812e23          	sw	s0,28(sp)
 540:	02010413          	addi	s0,sp,32
 544:	fea42623          	sw	a0,-20(s0)
 548:	00000013          	nop
 54c:	01c12403          	lw	s0,28(sp)
 550:	02010113          	addi	sp,sp,32
 554:	00008067          	ret

00000558 <plic_init>:
 558:	fe010113          	addi	sp,sp,-32
 55c:	00112e23          	sw	ra,28(sp)
 560:	00812c23          	sw	s0,24(sp)
 564:	02010413          	addi	s0,sp,32
 568:	fe042623          	sw	zero,-20(s0)
 56c:	19018793          	addi	a5,gp,400 # 10000190 <mcause_interrupt_table>
 570:	00000717          	auipc	a4,0x0
 574:	dc070713          	addi	a4,a4,-576 # 330 <mach_plic_handler>
 578:	00e7a023          	sw	a4,0(a5)
 57c:	00018793          	mv	a5,gp
 580:	0007a423          	sw	zero,8(a5)
 584:	00018793          	mv	a5,gp
 588:	0007a023          	sw	zero,0(a5)
 58c:	00018793          	mv	a5,gp
 590:	0007a223          	sw	zero,4(a5)
 594:	00018793          	mv	a5,gp
 598:	0007a623          	sw	zero,12(a5)
 59c:	00100793          	li	a5,1
 5a0:	fef42623          	sw	a5,-20(s0)
 5a4:	0980006f          	j	63c <plic_init+0xe4>
 5a8:	00018713          	mv	a4,gp
 5ac:	fec42783          	lw	a5,-20(s0)
 5b0:	00479793          	slli	a5,a5,0x4
 5b4:	00f707b3          	add	a5,a4,a5
 5b8:	0007a423          	sw	zero,8(a5)
 5bc:	00018713          	mv	a4,gp
 5c0:	fec42783          	lw	a5,-20(s0)
 5c4:	00479793          	slli	a5,a5,0x4
 5c8:	00f707b3          	add	a5,a4,a5
 5cc:	fec42703          	lw	a4,-20(s0)
 5d0:	00e7a023          	sw	a4,0(a5)
 5d4:	00018713          	mv	a4,gp
 5d8:	fec42783          	lw	a5,-20(s0)
 5dc:	00479793          	slli	a5,a5,0x4
 5e0:	00f707b3          	add	a5,a4,a5
 5e4:	00200713          	li	a4,2
 5e8:	00e7a223          	sw	a4,4(a5)
 5ec:	00018713          	mv	a4,gp
 5f0:	fec42783          	lw	a5,-20(s0)
 5f4:	00479793          	slli	a5,a5,0x4
 5f8:	00f707b3          	add	a5,a4,a5
 5fc:	0007a623          	sw	zero,12(a5)
 600:	fec42503          	lw	a0,-20(s0)
 604:	e19ff0ef          	jal	ra,41c <interrupt_disable>
 608:	14018713          	addi	a4,gp,320 # 10000140 <isr_table>
 60c:	fec42783          	lw	a5,-20(s0)
 610:	00279793          	slli	a5,a5,0x2
 614:	00f707b3          	add	a5,a4,a5
 618:	00000717          	auipc	a4,0x0
 61c:	f2070713          	addi	a4,a4,-224 # 538 <isr_default>
 620:	00e7a023          	sw	a4,0(a5)
 624:	fec42583          	lw	a1,-20(s0)
 628:	00200513          	li	a0,2
 62c:	ec9ff0ef          	jal	ra,4f4 <set_interrupt_priority>
 630:	fec42783          	lw	a5,-20(s0)
 634:	00178793          	addi	a5,a5,1
 638:	fef42623          	sw	a5,-20(s0)
 63c:	fec42703          	lw	a4,-20(s0)
 640:	01300793          	li	a5,19
 644:	f6e7f2e3          	bgeu	a5,a4,5a8 <plic_init+0x50>
 648:	00100513          	li	a0,1
 64c:	e71ff0ef          	jal	ra,4bc <set_interrupt_threshold>
 650:	00000013          	nop
 654:	01c12083          	lw	ra,28(sp)
 658:	01812403          	lw	s0,24(sp)
 65c:	02010113          	addi	sp,sp,32
 660:	00008067          	ret

00000664 <configure_interrupt>:
 664:	fe010113          	addi	sp,sp,-32
 668:	00112e23          	sw	ra,28(sp)
 66c:	00812c23          	sw	s0,24(sp)
 670:	02010413          	addi	s0,sp,32
 674:	fea42623          	sw	a0,-20(s0)
 678:	fec42703          	lw	a4,-20(s0)
 67c:	00600793          	li	a5,6
 680:	00e7fc63          	bgeu	a5,a4,698 <configure_interrupt+0x34>
 684:	fec42703          	lw	a4,-20(s0)
 688:	01500793          	li	a5,21
 68c:	00e7e663          	bltu	a5,a4,698 <configure_interrupt+0x34>
 690:	fec42503          	lw	a0,-20(s0)
 694:	c41ff0ef          	jal	ra,2d4 <configure_interrupt_pin>
 698:	fec42503          	lw	a0,-20(s0)
 69c:	d05ff0ef          	jal	ra,3a0 <interrupt_enable>
 6a0:	00000013          	nop
 6a4:	01c12083          	lw	ra,28(sp)
 6a8:	01812403          	lw	s0,24(sp)
 6ac:	02010113          	addi	sp,sp,32
 6b0:	00008067          	ret

000006b4 <extract_ie_code>:
 6b4:	fd010113          	addi	sp,sp,-48
 6b8:	02812623          	sw	s0,44(sp)
 6bc:	03010413          	addi	s0,sp,48
 6c0:	fca42e23          	sw	a0,-36(s0)
 6c4:	fdc42703          	lw	a4,-36(s0)
 6c8:	800007b7          	lui	a5,0x80000
 6cc:	fff7c793          	not	a5,a5
 6d0:	00f777b3          	and	a5,a4,a5
 6d4:	fef42623          	sw	a5,-20(s0)
 6d8:	fec42783          	lw	a5,-20(s0)
 6dc:	00078513          	mv	a0,a5
 6e0:	02c12403          	lw	s0,44(sp)
 6e4:	03010113          	addi	sp,sp,48
 6e8:	00008067          	ret

000006ec <default_handler>:
 6ec:	fe010113          	addi	sp,sp,-32
 6f0:	00812e23          	sw	s0,28(sp)
 6f4:	02010413          	addi	s0,sp,32
 6f8:	fea42623          	sw	a0,-20(s0)
 6fc:	feb42423          	sw	a1,-24(s0)
 700:	0000006f          	j	700 <default_handler+0x14>

00000704 <handle_trap>:
 704:	fd010113          	addi	sp,sp,-48
 708:	02112623          	sw	ra,44(sp)
 70c:	02812423          	sw	s0,40(sp)
 710:	03010413          	addi	s0,sp,48
 714:	fca42e23          	sw	a0,-36(s0)
 718:	fcb42c23          	sw	a1,-40(s0)
 71c:	fe042623          	sw	zero,-20(s0)
 720:	fe042423          	sw	zero,-24(s0)
 724:	01f00793          	li	a5,31
 728:	fef42423          	sw	a5,-24(s0)
 72c:	fe842783          	lw	a5,-24(s0)
 730:	00100713          	li	a4,1
 734:	00f717b3          	sll	a5,a4,a5
 738:	00078713          	mv	a4,a5
 73c:	fdc42783          	lw	a5,-36(s0)
 740:	00f777b3          	and	a5,a4,a5
 744:	02078a63          	beqz	a5,778 <handle_trap+0x74>
 748:	fdc42503          	lw	a0,-36(s0)
 74c:	f69ff0ef          	jal	ra,6b4 <extract_ie_code>
 750:	fea42623          	sw	a0,-20(s0)
 754:	19018713          	addi	a4,gp,400 # 10000190 <mcause_interrupt_table>
 758:	fec42783          	lw	a5,-20(s0)
 75c:	00279793          	slli	a5,a5,0x2
 760:	00f707b3          	add	a5,a4,a5
 764:	0007a783          	lw	a5,0(a5) # 80000000 <__stack_top+0x6ffff000>
 768:	fd842583          	lw	a1,-40(s0)
 76c:	fdc42503          	lw	a0,-36(s0)
 770:	000780e7          	jalr	a5
 774:	0240006f          	j	798 <handle_trap+0x94>
 778:	19418713          	addi	a4,gp,404 # 10000194 <mcause_trap_table>
 77c:	fdc42783          	lw	a5,-36(s0)
 780:	00279793          	slli	a5,a5,0x2
 784:	00f707b3          	add	a5,a4,a5
 788:	0007a783          	lw	a5,0(a5)
 78c:	fd842583          	lw	a1,-40(s0)
 790:	fdc42503          	lw	a0,-36(s0)
 794:	000780e7          	jalr	a5
 798:	fd842783          	lw	a5,-40(s0)
 79c:	00078513          	mv	a0,a5
 7a0:	02c12083          	lw	ra,44(sp)
 7a4:	02812403          	lw	s0,40(sp)
 7a8:	03010113          	addi	sp,sp,48
 7ac:	00008067          	ret

000007b0 <trap_init>:
 7b0:	ff010113          	addi	sp,sp,-16
 7b4:	00812623          	sw	s0,12(sp)
 7b8:	01010413          	addi	s0,sp,16
 7bc:	19018793          	addi	a5,gp,400 # 10000190 <mcause_interrupt_table>
 7c0:	00000717          	auipc	a4,0x0
 7c4:	b7070713          	addi	a4,a4,-1168 # 330 <mach_plic_handler>
 7c8:	00e7a023          	sw	a4,0(a5)
 7cc:	19418793          	addi	a5,gp,404 # 10000194 <mcause_trap_table>
 7d0:	00000717          	auipc	a4,0x0
 7d4:	f1c70713          	addi	a4,a4,-228 # 6ec <default_handler>
 7d8:	00e7a023          	sw	a4,0(a5)
 7dc:	00000013          	nop
 7e0:	00c12403          	lw	s0,12(sp)
 7e4:	01010113          	addi	sp,sp,16
 7e8:	00008067          	ret

000007ec <init>:
 7ec:	ff010113          	addi	sp,sp,-16
 7f0:	00112623          	sw	ra,12(sp)
 7f4:	00812423          	sw	s0,8(sp)
 7f8:	01010413          	addi	s0,sp,16
 7fc:	fb5ff0ef          	jal	ra,7b0 <trap_init>
 800:	9c1ff0ef          	jal	ra,1c0 <main>
 804:	00000013          	nop
 808:	00c12083          	lw	ra,12(sp)
 80c:	00812403          	lw	s0,8(sp)
 810:	01010113          	addi	sp,sp,16
 814:	00008067          	ret

Disassembly of section .eh_frame:

00000818 <__global_pointer$-0xffff7e8>:
 818:	0014                	0x14
 81a:	0000                	unimp
 81c:	0000                	unimp
 81e:	0000                	unimp
 820:	7a01                	lui	s4,0xfffe0
 822:	0052                	c.slli	zero,0x14
 824:	7c01                	lui	s8,0xfffe0
 826:	0101                	addi	sp,sp,0
 828:	07020d1b          	0x7020d1b
 82c:	0001                	nop
 82e:	0000                	unimp
 830:	0010                	0x10
 832:	0000                	unimp
 834:	001c                	0x1c
 836:	0000                	unimp
 838:	f850                	fsw	fa2,52(s0)
 83a:	ffff                	0xffff
 83c:	0018                	0x18
 83e:	0000                	unimp
 840:	0000                	unimp
 842:	0000                	unimp

Disassembly of section .bss:

10000000 <hart0_interrupt_matrix>:
10000000:	0000                	unimp
10000002:	0000                	unimp
10000004:	0000                	unimp
10000006:	0000                	unimp
10000008:	0000                	unimp
1000000a:	0000                	unimp
1000000c:	0000                	unimp
1000000e:	0000                	unimp
10000010:	0000                	unimp
10000012:	0000                	unimp
10000014:	0000                	unimp
10000016:	0000                	unimp
10000018:	0000                	unimp
1000001a:	0000                	unimp
1000001c:	0000                	unimp
1000001e:	0000                	unimp
10000020:	0000                	unimp
10000022:	0000                	unimp
10000024:	0000                	unimp
10000026:	0000                	unimp
10000028:	0000                	unimp
1000002a:	0000                	unimp
1000002c:	0000                	unimp
1000002e:	0000                	unimp
10000030:	0000                	unimp
10000032:	0000                	unimp
10000034:	0000                	unimp
10000036:	0000                	unimp
10000038:	0000                	unimp
1000003a:	0000                	unimp
1000003c:	0000                	unimp
1000003e:	0000                	unimp
10000040:	0000                	unimp
10000042:	0000                	unimp
10000044:	0000                	unimp
10000046:	0000                	unimp
10000048:	0000                	unimp
1000004a:	0000                	unimp
1000004c:	0000                	unimp
1000004e:	0000                	unimp
10000050:	0000                	unimp
10000052:	0000                	unimp
10000054:	0000                	unimp
10000056:	0000                	unimp
10000058:	0000                	unimp
1000005a:	0000                	unimp
1000005c:	0000                	unimp
1000005e:	0000                	unimp
10000060:	0000                	unimp
10000062:	0000                	unimp
10000064:	0000                	unimp
10000066:	0000                	unimp
10000068:	0000                	unimp
1000006a:	0000                	unimp
1000006c:	0000                	unimp
1000006e:	0000                	unimp
10000070:	0000                	unimp
10000072:	0000                	unimp
10000074:	0000                	unimp
10000076:	0000                	unimp
10000078:	0000                	unimp
1000007a:	0000                	unimp
1000007c:	0000                	unimp
1000007e:	0000                	unimp
10000080:	0000                	unimp
10000082:	0000                	unimp
10000084:	0000                	unimp
10000086:	0000                	unimp
10000088:	0000                	unimp
1000008a:	0000                	unimp
1000008c:	0000                	unimp
1000008e:	0000                	unimp
10000090:	0000                	unimp
10000092:	0000                	unimp
10000094:	0000                	unimp
10000096:	0000                	unimp
10000098:	0000                	unimp
1000009a:	0000                	unimp
1000009c:	0000                	unimp
1000009e:	0000                	unimp
100000a0:	0000                	unimp
100000a2:	0000                	unimp
100000a4:	0000                	unimp
100000a6:	0000                	unimp
100000a8:	0000                	unimp
100000aa:	0000                	unimp
100000ac:	0000                	unimp
100000ae:	0000                	unimp
100000b0:	0000                	unimp
100000b2:	0000                	unimp
100000b4:	0000                	unimp
100000b6:	0000                	unimp
100000b8:	0000                	unimp
100000ba:	0000                	unimp
100000bc:	0000                	unimp
100000be:	0000                	unimp
100000c0:	0000                	unimp
100000c2:	0000                	unimp
100000c4:	0000                	unimp
100000c6:	0000                	unimp
100000c8:	0000                	unimp
100000ca:	0000                	unimp
100000cc:	0000                	unimp
100000ce:	0000                	unimp
100000d0:	0000                	unimp
100000d2:	0000                	unimp
100000d4:	0000                	unimp
100000d6:	0000                	unimp
100000d8:	0000                	unimp
100000da:	0000                	unimp
100000dc:	0000                	unimp
100000de:	0000                	unimp
100000e0:	0000                	unimp
100000e2:	0000                	unimp
100000e4:	0000                	unimp
100000e6:	0000                	unimp
100000e8:	0000                	unimp
100000ea:	0000                	unimp
100000ec:	0000                	unimp
100000ee:	0000                	unimp
100000f0:	0000                	unimp
100000f2:	0000                	unimp
100000f4:	0000                	unimp
100000f6:	0000                	unimp
100000f8:	0000                	unimp
100000fa:	0000                	unimp
100000fc:	0000                	unimp
100000fe:	0000                	unimp
10000100:	0000                	unimp
10000102:	0000                	unimp
10000104:	0000                	unimp
10000106:	0000                	unimp
10000108:	0000                	unimp
1000010a:	0000                	unimp
1000010c:	0000                	unimp
1000010e:	0000                	unimp
10000110:	0000                	unimp
10000112:	0000                	unimp
10000114:	0000                	unimp
10000116:	0000                	unimp
10000118:	0000                	unimp
1000011a:	0000                	unimp
1000011c:	0000                	unimp
1000011e:	0000                	unimp
10000120:	0000                	unimp
10000122:	0000                	unimp
10000124:	0000                	unimp
10000126:	0000                	unimp
10000128:	0000                	unimp
1000012a:	0000                	unimp
1000012c:	0000                	unimp
1000012e:	0000                	unimp
10000130:	0000                	unimp
10000132:	0000                	unimp
10000134:	0000                	unimp
10000136:	0000                	unimp
10000138:	0000                	unimp
1000013a:	0000                	unimp
1000013c:	0000                	unimp
1000013e:	0000                	unimp

10000140 <isr_table>:
10000140:	0000                	unimp
10000142:	0000                	unimp
10000144:	0000                	unimp
10000146:	0000                	unimp
10000148:	0000                	unimp
1000014a:	0000                	unimp
1000014c:	0000                	unimp
1000014e:	0000                	unimp
10000150:	0000                	unimp
10000152:	0000                	unimp
10000154:	0000                	unimp
10000156:	0000                	unimp
10000158:	0000                	unimp
1000015a:	0000                	unimp
1000015c:	0000                	unimp
1000015e:	0000                	unimp
10000160:	0000                	unimp
10000162:	0000                	unimp
10000164:	0000                	unimp
10000166:	0000                	unimp
10000168:	0000                	unimp
1000016a:	0000                	unimp
1000016c:	0000                	unimp
1000016e:	0000                	unimp
10000170:	0000                	unimp
10000172:	0000                	unimp
10000174:	0000                	unimp
10000176:	0000                	unimp
10000178:	0000                	unimp
1000017a:	0000                	unimp
1000017c:	0000                	unimp
1000017e:	0000                	unimp
10000180:	0000                	unimp
10000182:	0000                	unimp
10000184:	0000                	unimp
10000186:	0000                	unimp
10000188:	0000                	unimp
1000018a:	0000                	unimp
1000018c:	0000                	unimp
1000018e:	0000                	unimp

10000190 <mcause_interrupt_table>:
10000190:	0000                	unimp
10000192:	0000                	unimp

10000194 <mcause_trap_table>:
10000194:	0000                	unimp
10000196:	0000                	unimp

Disassembly of section .riscv.attributes:

00000000 <.riscv.attributes>:
   0:	1b41                	addi	s6,s6,-16
   2:	0000                	unimp
   4:	7200                	flw	fs0,32(a2)
   6:	7369                	lui	t1,0xffffa
   8:	01007663          	bgeu	zero,a6,14 <_start+0x14>
   c:	0011                	c.nop	4
   e:	0000                	unimp
  10:	1004                	addi	s1,sp,32
  12:	7205                	lui	tp,0xfffe1
  14:	3376                	fld	ft6,376(sp)
  16:	6932                	flw	fs2,12(sp)
  18:	7032                	flw	ft0,44(sp)
  1a:	0030                	addi	a2,sp,8

Disassembly of section .comment:

00000000 <.comment>:
   0:	3a434347          	fmsub.d	ft6,ft6,ft4,ft7,rmm
   4:	2820                	fld	fs0,80(s0)
   6:	736f7263          	bgeu	t5,s6,72a <handle_trap+0x26>
   a:	6f6f7473          	csrrci	s0,0x6f6,30
   e:	2d6c                	fld	fa1,216(a0)
  10:	474e                	lw	a4,208(sp)
  12:	3120                	fld	fs0,96(a0)
  14:	322e                	fld	ft4,232(sp)
  16:	2e34                	fld	fa3,88(a2)
  18:	2e30                	fld	fa2,88(a2)
  1a:	3134                	fld	fa3,96(a0)
  1c:	342d                	jal	fffffa46 <__stack_top+0xefffea46>
  1e:	37643537          	lui	a0,0x37643
  22:	6632                	flw	fa2,12(sp)
  24:	2029                	jal	2e <_start+0x2e>
  26:	2e39                	jal	344 <mach_plic_handler+0x14>
  28:	2e32                	fld	ft8,264(sp)
  2a:	0030                	addi	a2,sp,8

Disassembly of section .debug_info:

00000000 <.debug_info>:
       0:	0949                	addi	s2,s2,18
       2:	0000                	unimp
       4:	0004                	0x4
       6:	0000                	unimp
       8:	0000                	unimp
       a:	0104                	addi	s1,sp,128
       c:	01d4                	addi	a3,sp,196
       e:	0000                	unimp
      10:	9f0c                	0x9f0c
      12:	0001                	nop
      14:	b100                	fsd	fs0,32(a0)
      16:	0002                	c.slli64	zero
      18:	c000                	sw	s0,0(s0)
      1a:	0001                	nop
      1c:	4000                	lw	s0,0(s0)
      1e:	0000                	unimp
      20:	0000                	unimp
      22:	0000                	unimp
      24:	0200                	addi	s0,sp,256
      26:	0601                	addi	a2,a2,0
      28:	000002f3          	0x2f3
      2c:	0102                	c.slli64	sp
      2e:	f108                	fsw	fa0,32(a0)
      30:	0002                	c.slli64	zero
      32:	0200                	addi	s0,sp,256
      34:	0502                	c.slli64	a0
      36:	030d                	addi	t1,t1,3
      38:	0000                	unimp
      3a:	0202                	c.slli64	tp
      3c:	00021c07          	0x21c07
      40:	0200                	addi	s0,sp,256
      42:	0504                	addi	s1,sp,640
      44:	00a1                	addi	ra,ra,8
      46:	0000                	unimp
      48:	0402                	c.slli64	s0
      4a:	00005007          	0x5007
      4e:	0200                	addi	s0,sp,256
      50:	0508                	addi	a0,sp,640
      52:	009c                	addi	a5,sp,64
      54:	0000                	unimp
      56:	0802                	c.slli64	a6
      58:	00004b07          	flq	fs6,0(zero) # 0 <_start>
      5c:	0300                	addi	s0,sp,384
      5e:	0504                	addi	s1,sp,640
      60:	6e69                	lui	t3,0x1a
      62:	0074                	addi	a3,sp,12
      64:	0402                	c.slli64	s0
      66:	00005507          	0x5507
      6a:	0400                	addi	s0,sp,512
      6c:	02df 0000 0c02      	0xc02000002df
      72:	5d0d                	li	s10,-29
      74:	0000                	unimp
      76:	0400                	addi	s0,sp,512
      78:	0198                	addi	a4,sp,192
      7a:	0000                	unimp
      7c:	410e2c03          	lw	s8,1040(t3) # 1a410 <_etext+0x19bf8>
      80:	0000                	unimp
      82:	0400                	addi	s0,sp,512
      84:	03c9                	addi	t2,t2,18
      86:	0000                	unimp
      88:	410e7203          	0x410e7203
      8c:	0000                	unimp
      8e:	0400                	addi	s0,sp,512
      90:	0000044b          	fnmsub.s	fs0,ft0,ft0,ft0,rne
      94:	5d179103          	lh	sp,1489(a5)
      98:	0000                	unimp
      9a:	0500                	addi	s0,sp,640
      9c:	025f 0000 5e04      	0x5e040000025f
      a2:	1701                	addi	a4,a4,-32
      a4:	0064                	addi	s1,sp,12
      a6:	0000                	unimp
      a8:	0406                	slli	s0,s0,0x1
      aa:	ca03a603          	lw	a2,-864(t2)
      ae:	0000                	unimp
      b0:	0700                	addi	s0,sp,896
      b2:	0259                	addi	tp,tp,22
      b4:	0000                	unimp
      b6:	9b0ca803          	lw	a6,-1616(s9)
      ba:	0000                	unimp
      bc:	0700                	addi	s0,sp,896
      be:	0181                	addi	gp,gp,0
      c0:	0000                	unimp
      c2:	ca13a903          	lw	s2,-863(t2)
      c6:	0000                	unimp
      c8:	0000                	unimp
      ca:	2c08                	fld	fa0,24(s0)
      cc:	0000                	unimp
      ce:	da00                	sw	s0,48(a2)
      d0:	0000                	unimp
      d2:	0900                	addi	s0,sp,144
      d4:	0064                	addi	s1,sp,12
      d6:	0000                	unimp
      d8:	080a0003          	lb	zero,128(s4) # fffe0080 <__stack_top+0xeffdf080>
      dc:	fe09a303          	lw	t1,-32(s3)
      e0:	0000                	unimp
      e2:	0b00                	addi	s0,sp,400
      e4:	000003b3          	add	t2,zero,zero
      e8:	5d07a503          	lw	a0,1488(a5)
      ec:	0000                	unimp
      ee:	0000                	unimp
      f0:	0003bb0b          	0x3bb0b
      f4:	0300                	addi	s0,sp,384
      f6:	05aa                	slli	a1,a1,0xa
      f8:	00a8                	addi	a0,sp,72
      fa:	0000                	unimp
      fc:	0004                	0x4
      fe:	3504                	fld	fs1,40(a0)
     100:	03000003          	lb	zero,48(zero) # 30 <_start+0x30>
     104:	00da03ab          	0xda03ab
     108:	0000                	unimp
     10a:	4404                	lw	s1,8(s0)
     10c:	0001                	nop
     10e:	0300                	addi	s0,sp,384
     110:	006b1baf          	0x6b1baf
     114:	0000                	unimp
     116:	040c                	addi	a1,sp,512
     118:	fb04                	fsw	fs1,48(a4)
     11a:	05000003          	lb	zero,80(zero) # 50 <_start+0x50>
     11e:	1916                	slli	s2,s2,0x25
     120:	0048                	addi	a0,sp,4
     122:	0000                	unimp
     124:	550d                	li	a0,-29
     126:	0001                	nop
     128:	1800                	addi	s0,sp,48
     12a:	2f05                	jal	85a <_etext+0x42>
     12c:	7e08                	flw	fa0,56(a2)
     12e:	0001                	nop
     130:	0b00                	addi	s0,sp,400
     132:	0356                	slli	t1,t1,0x15
     134:	0000                	unimp
     136:	3105                	jal	fffffd56 <__stack_top+0xefffed56>
     138:	00017e13          	andi	t3,sp,0
     13c:	0000                	unimp
     13e:	5f0e                	lw	t5,224(sp)
     140:	3205006b          	0x3205006b
     144:	00005d07          	0x5d07
     148:	0400                	addi	s0,sp,512
     14a:	00039e0b          	0x39e0b
     14e:	0500                	addi	s0,sp,640
     150:	0b32                	slli	s6,s6,0xc
     152:	005d                	c.nop	23
     154:	0000                	unimp
     156:	0b08                	addi	a0,sp,400
     158:	013e                	slli	sp,sp,0xf
     15a:	0000                	unimp
     15c:	3205                	jal	fffffa7c <__stack_top+0xefffea7c>
     15e:	5d14                	lw	a3,56(a0)
     160:	0000                	unimp
     162:	0c00                	addi	s0,sp,528
     164:	0004360b          	0x4360b
     168:	0500                	addi	s0,sp,640
     16a:	1b32                	slli	s6,s6,0x2c
     16c:	005d                	c.nop	23
     16e:	0000                	unimp
     170:	0e10                	addi	a2,sp,784
     172:	785f 0500 0b33      	0xb330500785f
     178:	0184                	addi	s1,sp,192
     17a:	0000                	unimp
     17c:	0014                	0x14
     17e:	0124040f          	0x124040f
     182:	0000                	unimp
     184:	1808                	addi	a0,sp,48
     186:	0001                	nop
     188:	9400                	0x9400
     18a:	0001                	nop
     18c:	0900                	addi	s0,sp,144
     18e:	0064                	addi	s1,sp,12
     190:	0000                	unimp
     192:	0000                	unimp
     194:	7c0d                	lui	s8,0xfffe3
     196:	0001                	nop
     198:	2400                	fld	fs0,8(s0)
     19a:	3705                	jal	ba <_stext+0x1a>
     19c:	1708                	addi	a0,sp,928
     19e:	0002                	c.slli64	zero
     1a0:	0b00                	addi	s0,sp,400
     1a2:	00000093          	li	ra,0
     1a6:	3905                	jal	fffffdd6 <__stack_top+0xefffedd6>
     1a8:	5d09                	li	s10,-30
     1aa:	0000                	unimp
     1ac:	0000                	unimp
     1ae:	0003d10b          	0x3d10b
     1b2:	0500                	addi	s0,sp,640
     1b4:	093a                	slli	s2,s2,0xe
     1b6:	005d                	c.nop	23
     1b8:	0000                	unimp
     1ba:	0b04                	addi	s1,sp,400
     1bc:	00b6                	slli	ra,ra,0xd
     1be:	0000                	unimp
     1c0:	3b05                	jal	fffffef0 <__stack_top+0xefffeef0>
     1c2:	5d09                	li	s10,-30
     1c4:	0000                	unimp
     1c6:	0800                	addi	s0,sp,16
     1c8:	0004b40b          	0x4b40b
     1cc:	0500                	addi	s0,sp,640
     1ce:	093c                	addi	a5,sp,152
     1d0:	005d                	c.nop	23
     1d2:	0000                	unimp
     1d4:	0b0c                	addi	a1,sp,400
     1d6:	0295                	addi	t0,t0,5
     1d8:	0000                	unimp
     1da:	3d05                	jal	a <_start+0xa>
     1dc:	5d09                	li	s10,-30
     1de:	0000                	unimp
     1e0:	1000                	addi	s0,sp,32
     1e2:	00027b0b          	0x27b0b
     1e6:	0500                	addi	s0,sp,640
     1e8:	093e                	slli	s2,s2,0xf
     1ea:	005d                	c.nop	23
     1ec:	0000                	unimp
     1ee:	0b14                	addi	a3,sp,400
     1f0:	0000043b          	0x43b
     1f4:	3f05                	jal	124 <_stext+0x84>
     1f6:	5d09                	li	s10,-30
     1f8:	0000                	unimp
     1fa:	1800                	addi	s0,sp,48
     1fc:	0003170b          	0x3170b
     200:	0500                	addi	s0,sp,640
     202:	0940                	addi	s0,sp,148
     204:	005d                	c.nop	23
     206:	0000                	unimp
     208:	0b1c                	addi	a5,sp,400
     20a:	0476                	slli	s0,s0,0x1d
     20c:	0000                	unimp
     20e:	4105                	li	sp,1
     210:	5d09                	li	s10,-30
     212:	0000                	unimp
     214:	2000                	fld	fs0,0(s0)
     216:	1000                	addi	s0,sp,32
     218:	00c5                	addi	ra,ra,17
     21a:	0000                	unimp
     21c:	0108                	addi	a0,sp,128
     21e:	4a05                	li	s4,1
     220:	5c08                	lw	a0,56(s0)
     222:	0002                	c.slli64	zero
     224:	0b00                	addi	s0,sp,400
     226:	0131                	addi	sp,sp,12
     228:	0000                	unimp
     22a:	4b05                	li	s6,1
     22c:	5c0a                	lw	s8,160(sp)
     22e:	0002                	c.slli64	zero
     230:	0000                	unimp
     232:	0000000b          	0xb
     236:	0500                	addi	s0,sp,640
     238:	094c                	addi	a1,sp,148
     23a:	025c                	addi	a5,sp,260
     23c:	0000                	unimp
     23e:	1180                	addi	s0,sp,224
     240:	03ed                	addi	t2,t2,27
     242:	0000                	unimp
     244:	4e05                	li	t3,1
     246:	180a                	slli	a6,a6,0x22
     248:	0001                	nop
     24a:	0000                	unimp
     24c:	1101                	addi	sp,sp,-32
     24e:	00ea                	slli	ra,ra,0x1a
     250:	0000                	unimp
     252:	5105                	li	sp,-31
     254:	180a                	slli	a6,a6,0x22
     256:	0001                	nop
     258:	0400                	addi	s0,sp,512
     25a:	0001                	nop
     25c:	1608                	addi	a0,sp,800
     25e:	0001                	nop
     260:	6c00                	flw	fs0,24(s0)
     262:	0002                	c.slli64	zero
     264:	0900                	addi	s0,sp,144
     266:	0064                	addi	s1,sp,12
     268:	0000                	unimp
     26a:	001f 9e10 0002      	0x29e10001f
     270:	9000                	0x9000
     272:	0501                	addi	a0,a0,0
     274:	085d                	addi	a6,a6,23
     276:	000002af          	0x2af
     27a:	0003560b          	0x3560b
     27e:	0500                	addi	s0,sp,640
     280:	125e                	slli	tp,tp,0x37
     282:	000002af          	0x2af
     286:	0b00                	addi	s0,sp,400
     288:	036e                	slli	t1,t1,0x1b
     28a:	0000                	unimp
     28c:	5f05                	li	t5,-31
     28e:	5d06                	lw	s10,96(sp)
     290:	0000                	unimp
     292:	0400                	addi	s0,sp,512
     294:	0001390b          	0x1390b
     298:	0500                	addi	s0,sp,640
     29a:	0961                	addi	s2,s2,24
     29c:	02b5                	addi	t0,t0,13
     29e:	0000                	unimp
     2a0:	0b08                	addi	a0,sp,400
     2a2:	00c5                	addi	ra,ra,17
     2a4:	0000                	unimp
     2a6:	6205                	lui	tp,0x1
     2a8:	171e                	slli	a4,a4,0x27
     2aa:	0002                	c.slli64	zero
     2ac:	8800                	0x8800
     2ae:	0f00                	addi	s0,sp,912
     2b0:	6c04                	flw	fs1,24(s0)
     2b2:	0002                	c.slli64	zero
     2b4:	0800                	addi	s0,sp,16
     2b6:	02c5                	addi	t0,t0,17
     2b8:	0000                	unimp
     2ba:	02c5                	addi	t0,t0,17
     2bc:	0000                	unimp
     2be:	6409                	lui	s0,0x2
     2c0:	0000                	unimp
     2c2:	1f00                	addi	s0,sp,944
     2c4:	0f00                	addi	s0,sp,912
     2c6:	cb04                	sw	s1,16(a4)
     2c8:	0002                	c.slli64	zero
     2ca:	1200                	addi	s0,sp,288
     2cc:	210d                	jal	6ee <default_handler+0x2>
     2ce:	08000003          	lb	zero,128(zero) # 80 <_start+0x80>
     2d2:	7505                	lui	a0,0xfffe1
     2d4:	f408                	fsw	fa0,40(s0)
     2d6:	0002                	c.slli64	zero
     2d8:	0b00                	addi	s0,sp,400
     2da:	00b0                	addi	a2,sp,72
     2dc:	0000                	unimp
     2de:	7605                	lui	a2,0xfffe1
     2e0:	f411                	bnez	s0,1ec <main+0x2c>
     2e2:	0002                	c.slli64	zero
     2e4:	0000                	unimp
     2e6:	00000c0b          	0xc0b
     2ea:	0500                	addi	s0,sp,640
     2ec:	005d0677          	0x5d0677
     2f0:	0000                	unimp
     2f2:	0004                	0x4
     2f4:	002c040f          	0x2c040f
     2f8:	0000                	unimp
     2fa:	400d                	c.li	zero,3
     2fc:	68000003          	lb	zero,1664(zero) # 680 <configure_interrupt+0x1c>
     300:	b505                	j	120 <_stext+0x80>
     302:	3d08                	fld	fa0,56(a0)
     304:	0004                	0x4
     306:	0e00                	addi	s0,sp,784
     308:	705f 0500 12b6      	0x12b60500705f
     30e:	02f4                	addi	a3,sp,332
     310:	0000                	unimp
     312:	0e00                	addi	s0,sp,784
     314:	725f 0500 07b7      	0x7b70500725f
     31a:	005d                	c.nop	23
     31c:	0000                	unimp
     31e:	0e04                	addi	s1,sp,784
     320:	775f 0500 07b8      	0x7b80500775f
     326:	005d                	c.nop	23
     328:	0000                	unimp
     32a:	0b08                	addi	a0,sp,400
     32c:	000000e3          	beqz	zero,b2c <_etext+0x314>
     330:	b905                	j	ffffff60 <__stack_top+0xefffef60>
     332:	3309                	jal	34 <_start+0x34>
     334:	0000                	unimp
     336:	0c00                	addi	s0,sp,528
     338:	0004300b          	0x4300b
     33c:	0500                	addi	s0,sp,640
     33e:	09ba                	slli	s3,s3,0xe
     340:	00000033          	add	zero,zero,zero
     344:	0e0e                	slli	t3,t3,0x3
     346:	625f 0066 bb05      	0xbb050066625f
     34c:	cc11                	beqz	s0,368 <mach_plic_handler+0x38>
     34e:	0002                	c.slli64	zero
     350:	1000                	addi	s0,sp,32
     352:	0000620b          	0x620b
     356:	0500                	addi	s0,sp,640
     358:	07bc                	addi	a5,sp,968
     35a:	005d                	c.nop	23
     35c:	0000                	unimp
     35e:	0b18                	addi	a4,sp,400
     360:	000000d3          	fadd.s	ft1,ft0,ft0,rne
     364:	c305                	beqz	a4,384 <mach_plic_handler+0x54>
     366:	160a                	slli	a2,a2,0x22
     368:	0001                	nop
     36a:	1c00                	addi	s0,sp,560
     36c:	00016c0b          	0x16c0b
     370:	0500                	addi	s0,sp,640
     372:	1dc5                	addi	s11,s11,-15
     374:	05c1                	addi	a1,a1,16
     376:	0000                	unimp
     378:	0b20                	addi	s0,sp,408
     37a:	0274                	addi	a3,sp,268
     37c:	0000                	unimp
     37e:	c705                	beqz	a4,3a6 <interrupt_enable+0x6>
     380:	eb1d                	bnez	a4,3b6 <interrupt_enable+0x16>
     382:	0005                	c.nop	1
     384:	2400                	fld	fs0,8(s0)
     386:	0003c30b          	0x3c30b
     38a:	0500                	addi	s0,sp,640
     38c:	0dca                	slli	s11,s11,0x12
     38e:	0000060f          	0x60f
     392:	0b28                	addi	a0,sp,408
     394:	0490                	addi	a2,sp,576
     396:	0000                	unimp
     398:	cb05                	beqz	a4,3c8 <interrupt_enable+0x28>
     39a:	2909                	jal	7ac <handle_trap+0xa8>
     39c:	0006                	c.slli	zero,0x1
     39e:	2c00                	fld	fs0,24(s0)
     3a0:	5f0e                	lw	t5,224(sp)
     3a2:	6275                	lui	tp,0x1d
     3a4:	0500                	addi	s0,sp,640
     3a6:	11ce                	slli	gp,gp,0x33
     3a8:	02cc                	addi	a1,sp,324
     3aa:	0000                	unimp
     3ac:	0e30                	addi	a2,sp,792
     3ae:	755f 0070 cf05      	0xcf050070755f
     3b4:	f412                	fsw	ft4,40(sp)
     3b6:	0002                	c.slli64	zero
     3b8:	3800                	fld	fs0,48(s0)
     3ba:	5f0e                	lw	t5,224(sp)
     3bc:	7275                	lui	tp,0xffffd
     3be:	0500                	addi	s0,sp,640
     3c0:	07d0                	addi	a2,sp,964
     3c2:	005d                	c.nop	23
     3c4:	0000                	unimp
     3c6:	0b3c                	addi	a5,sp,408
     3c8:	00aa                	slli	ra,ra,0xa
     3ca:	0000                	unimp
     3cc:	d305                	beqz	a4,2ec <configure_interrupt_pin+0x18>
     3ce:	2f11                	jal	ae2 <_etext+0x2ca>
     3d0:	0006                	c.slli	zero,0x1
     3d2:	4000                	lw	s0,0(s0)
     3d4:	0004680b          	0x4680b
     3d8:	0500                	addi	s0,sp,640
     3da:	11d4                	addi	a3,sp,228
     3dc:	0000063f 6c5f0e43 	0x6c5f0e430000063f
     3e4:	0062                	c.slli	zero,0x18
     3e6:	d705                	beqz	a4,30e <interrupt_claim_request+0x1a>
     3e8:	cc11                	beqz	s0,404 <interrupt_enable+0x64>
     3ea:	0002                	c.slli64	zero
     3ec:	4400                	lw	s0,8(s0)
     3ee:	0000f90b          	0xf90b
     3f2:	0500                	addi	s0,sp,640
     3f4:	07da                	slli	a5,a5,0x16
     3f6:	005d                	c.nop	23
     3f8:	0000                	unimp
     3fa:	0b4c                	addi	a1,sp,404
     3fc:	010a                	slli	sp,sp,0x2
     3fe:	0000                	unimp
     400:	db05                	beqz	a4,330 <mach_plic_handler>
     402:	770a                	flw	fa4,160(sp)
     404:	0000                	unimp
     406:	5000                	lw	s0,32(s0)
     408:	0000250b          	0x250b
     40c:	0500                	addi	s0,sp,640
     40e:	12de                	slli	t0,t0,0x37
     410:	0000045b          	0x45b
     414:	0b54                	addi	a3,sp,404
     416:	0266                	slli	tp,tp,0x19
     418:	0000                	unimp
     41a:	e205                	bnez	a2,43a <interrupt_disable+0x1e>
     41c:	0a0c                	addi	a1,sp,272
     41e:	0001                	nop
     420:	5800                	lw	s0,48(s0)
     422:	0003480b          	0x3480b
     426:	0500                	addi	s0,sp,640
     428:	0ee4                	addi	s1,sp,860
     42a:	00fe                	slli	ra,ra,0x1f
     42c:	0000                	unimp
     42e:	0b5c                	addi	a5,sp,404
     430:	026c                	addi	a1,sp,268
     432:	0000                	unimp
     434:	e505                	bnez	a0,45c <interrupt_disable+0x40>
     436:	5d09                	li	s10,-30
     438:	0000                	unimp
     43a:	6400                	flw	fs0,8(s0)
     43c:	1300                	addi	s0,sp,416
     43e:	0000008f          	0x8f
     442:	0000045b          	0x45b
     446:	5b14                	lw	a3,48(a4)
     448:	0004                	0x4
     44a:	1400                	addi	s0,sp,544
     44c:	0116                	slli	sp,sp,0x5
     44e:	0000                	unimp
     450:	af14                	fsd	fa3,24(a4)
     452:	0005                	c.nop	1
     454:	1400                	addi	s0,sp,544
     456:	005d                	c.nop	23
     458:	0000                	unimp
     45a:	0f00                	addi	s0,sp,912
     45c:	6604                	flw	fs1,8(a2)
     45e:	0004                	0x4
     460:	1500                	addi	s0,sp,672
     462:	0000045b          	0x45b
     466:	a616                	fsd	ft5,264(sp)
     468:	28000003          	lb	zero,640(zero) # 280 <interrupt_complete+0x28>
     46c:	0504                	addi	s1,sp,640
     46e:	0260                	addi	s0,sp,268
     470:	af08                	fsd	fa0,24(a4)
     472:	0005                	c.nop	1
     474:	1700                	addi	s0,sp,928
     476:	0306                	slli	t1,t1,0x1
     478:	0000                	unimp
     47a:	6205                	lui	tp,0x1
     47c:	0702                	c.slli64	a4
     47e:	005d                	c.nop	23
     480:	0000                	unimp
     482:	1700                	addi	s0,sp,928
     484:	00f2                	slli	ra,ra,0x1c
     486:	0000                	unimp
     488:	6705                	lui	a4,0x1
     48a:	0b02                	c.slli64	s6
     48c:	0000069b          	0x69b
     490:	1704                	addi	s1,sp,928
     492:	0188                	addi	a0,sp,192
     494:	0000                	unimp
     496:	6705                	lui	a4,0x1
     498:	1402                	slli	s0,s0,0x20
     49a:	0000069b          	0x69b
     49e:	1708                	addi	a0,sp,928
     4a0:	014d                	addi	sp,sp,19
     4a2:	0000                	unimp
     4a4:	6705                	lui	a4,0x1
     4a6:	1e02                	slli	t3,t3,0x20
     4a8:	0000069b          	0x69b
     4ac:	170c                	addi	a1,sp,928
     4ae:	0369                	addi	t1,t1,26
     4b0:	0000                	unimp
     4b2:	6905                	lui	s2,0x1
     4b4:	0802                	c.slli64	a6
     4b6:	005d                	c.nop	23
     4b8:	0000                	unimp
     4ba:	1710                	addi	a2,sp,928
     4bc:	001a                	c.slli	zero,0x6
     4be:	0000                	unimp
     4c0:	6a05                	lui	s4,0x1
     4c2:	0802                	c.slli64	a6
     4c4:	0000089b          	0x89b
     4c8:	1714                	addi	a3,sp,928
     4ca:	0385                	addi	t2,t2,1
     4cc:	0000                	unimp
     4ce:	6d05                	lui	s10,0x1
     4d0:	0702                	c.slli64	a4
     4d2:	005d                	c.nop	23
     4d4:	0000                	unimp
     4d6:	1730                	addi	a2,sp,936
     4d8:	00000373          	0x373
     4dc:	6e05                	lui	t3,0x1
     4de:	1602                	slli	a2,a2,0x20
     4e0:	08b0                	addi	a2,sp,88
     4e2:	0000                	unimp
     4e4:	1734                	addi	a3,sp,936
     4e6:	02a6                	slli	t0,t0,0x9
     4e8:	0000                	unimp
     4ea:	7005                	c.lui	zero,0xfffe1
     4ec:	0702                	c.slli64	a4
     4ee:	005d                	c.nop	23
     4f0:	0000                	unimp
     4f2:	1738                	addi	a4,sp,936
     4f4:	0000037b          	0x37b
     4f8:	7205                	lui	tp,0xfffe1
     4fa:	0a02                	c.slli64	s4
     4fc:	08c1                	addi	a7,a7,16
     4fe:	0000                	unimp
     500:	173c                	addi	a5,sp,936
     502:	0251                	addi	tp,tp,20
     504:	0000                	unimp
     506:	7505                	lui	a0,0xfffe1
     508:	1302                	slli	t1,t1,0x20
     50a:	017e                	slli	sp,sp,0x1f
     50c:	0000                	unimp
     50e:	1740                	addi	s0,sp,932
     510:	0172                	slli	sp,sp,0x1c
     512:	0000                	unimp
     514:	7605                	lui	a2,0xfffe1
     516:	0702                	c.slli64	a4
     518:	005d                	c.nop	23
     51a:	0000                	unimp
     51c:	1744                	addi	s1,sp,932
     51e:	04aa                	slli	s1,s1,0xa
     520:	0000                	unimp
     522:	7705                	lui	a4,0xfffe1
     524:	1302                	slli	t1,t1,0x20
     526:	017e                	slli	sp,sp,0x1f
     528:	0000                	unimp
     52a:	1748                	addi	a0,sp,932
     52c:	02d5                	addi	t0,t0,21
     52e:	0000                	unimp
     530:	7805                	lui	a6,0xfffe1
     532:	1402                	slli	s0,s0,0x20
     534:	000008c7          	fmsub.s	fa7,ft0,ft0,ft0,rne
     538:	174c                	addi	a1,sp,932
     53a:	0190                	addi	a2,sp,192
     53c:	0000                	unimp
     53e:	7b05                	lui	s6,0xfffe1
     540:	0702                	c.slli64	a4
     542:	005d                	c.nop	23
     544:	0000                	unimp
     546:	1750                	addi	a2,sp,932
     548:	0102                	c.slli64	sp
     54a:	0000                	unimp
     54c:	7c05                	lui	s8,0xfffe1
     54e:	0902                	c.slli64	s2
     550:	000005af          	0x5af
     554:	1754                	addi	a3,sp,932
     556:	02ff                	0x2ff
     558:	0000                	unimp
     55a:	9f05                	0x9f05
     55c:	0702                	c.slli64	a4
     55e:	0876                	slli	a6,a6,0x1d
     560:	0000                	unimp
     562:	1858                	addi	a4,sp,52
     564:	029e                	slli	t0,t0,0x7
     566:	0000                	unimp
     568:	a305                	j	a88 <_etext+0x270>
     56a:	1302                	slli	t1,t1,0x20
     56c:	000002af          	0x2af
     570:	0148                	addi	a0,sp,132
     572:	2f18                	fld	fa4,24(a4)
     574:	0002                	c.slli64	zero
     576:	0500                	addi	s0,sp,640
     578:	02a4                	addi	s1,sp,328
     57a:	6c12                	flw	fs8,4(sp)
     57c:	0002                	c.slli64	zero
     57e:	4c00                	lw	s0,24(s0)
     580:	1801                	addi	a6,a6,-32
     582:	045e                	slli	s0,s0,0x17
     584:	0000                	unimp
     586:	a805                	j	5b6 <plic_init+0x5e>
     588:	0c02                	c.slli64	s8
     58a:	08d8                	addi	a4,sp,84
     58c:	0000                	unimp
     58e:	02dc                	addi	a5,sp,324
     590:	db18                	sw	a4,48(a4)
     592:	0000                	unimp
     594:	0500                	addi	s0,sp,640
     596:	02ad                	addi	t0,t0,11
     598:	5c10                	lw	a2,56(s0)
     59a:	0006                	c.slli	zero,0x1
     59c:	e000                	fsw	fs0,0(s0)
     59e:	1802                	slli	a6,a6,0x20
     5a0:	00c0                	addi	s0,sp,68
     5a2:	0000                	unimp
     5a4:	af05                	j	cd4 <_etext+0x4bc>
     5a6:	0a02                	c.slli64	s4
     5a8:	08e4                	addi	s1,sp,92
     5aa:	0000                	unimp
     5ac:	02ec                	addi	a1,sp,332
     5ae:	0f00                	addi	s0,sp,912
     5b0:	b504                	fsd	fs1,40(a0)
     5b2:	0005                	c.nop	1
     5b4:	0200                	addi	s0,sp,256
     5b6:	0801                	addi	a6,a6,0
     5b8:	02fa                	slli	t0,t0,0x1e
     5ba:	0000                	unimp
     5bc:	b515                	j	3e0 <interrupt_enable+0x40>
     5be:	0005                	c.nop	1
     5c0:	0f00                	addi	s0,sp,912
     5c2:	3d04                	fld	fs1,56(a0)
     5c4:	0004                	0x4
     5c6:	1300                	addi	s0,sp,416
     5c8:	0000008f          	0x8f
     5cc:	05e5                	addi	a1,a1,25
     5ce:	0000                	unimp
     5d0:	5b14                	lw	a3,48(a4)
     5d2:	0004                	0x4
     5d4:	1400                	addi	s0,sp,544
     5d6:	0116                	slli	sp,sp,0x5
     5d8:	0000                	unimp
     5da:	e514                	fsw	fa3,8(a0)
     5dc:	0005                	c.nop	1
     5de:	1400                	addi	s0,sp,544
     5e0:	005d                	c.nop	23
     5e2:	0000                	unimp
     5e4:	0f00                	addi	s0,sp,912
     5e6:	bc04                	fsd	fs1,56(s0)
     5e8:	0005                	c.nop	1
     5ea:	0f00                	addi	s0,sp,912
     5ec:	c704                	sw	s1,8(a4)
     5ee:	0005                	c.nop	1
     5f0:	1300                	addi	s0,sp,416
     5f2:	00000083          	lb	ra,0(zero) # 0 <_start>
     5f6:	0000060f          	0x60f
     5fa:	5b14                	lw	a3,48(a4)
     5fc:	0004                	0x4
     5fe:	1400                	addi	s0,sp,544
     600:	0116                	slli	sp,sp,0x5
     602:	0000                	unimp
     604:	8314                	0x8314
     606:	0000                	unimp
     608:	1400                	addi	s0,sp,544
     60a:	005d                	c.nop	23
     60c:	0000                	unimp
     60e:	0f00                	addi	s0,sp,912
     610:	f104                	fsw	fs1,32(a0)
     612:	0005                	c.nop	1
     614:	1300                	addi	s0,sp,416
     616:	005d                	c.nop	23
     618:	0000                	unimp
     61a:	0629                	addi	a2,a2,10
     61c:	0000                	unimp
     61e:	5b14                	lw	a3,48(a4)
     620:	0004                	0x4
     622:	1400                	addi	s0,sp,544
     624:	0116                	slli	sp,sp,0x5
     626:	0000                	unimp
     628:	0f00                	addi	s0,sp,912
     62a:	1504                	addi	s1,sp,672
     62c:	0006                	c.slli	zero,0x1
     62e:	0800                	addi	s0,sp,16
     630:	002c                	addi	a1,sp,8
     632:	0000                	unimp
     634:	0000063f 00006409 	0x64090000063f
     63c:	0200                	addi	s0,sp,256
     63e:	0800                	addi	s0,sp,16
     640:	002c                	addi	a1,sp,8
     642:	0000                	unimp
     644:	0000064f          	fnmadd.s	fa2,ft0,ft0,ft0,rne
     648:	6409                	lui	s0,0x2
     64a:	0000                	unimp
     64c:	0000                	unimp
     64e:	0500                	addi	s0,sp,640
     650:	032e                	slli	t1,t1,0xb
     652:	0000                	unimp
     654:	1f05                	addi	t5,t5,-31
     656:	1a01                	addi	s4,s4,-32
     658:	02fa                	slli	t0,t0,0x1e
     65a:	0000                	unimp
     65c:	4519                	li	a0,6
     65e:	0004                	0x4
     660:	0c00                	addi	s0,sp,528
     662:	2305                	jal	b82 <_etext+0x36a>
     664:	0801                	addi	a6,a6,0
     666:	0695                	addi	a3,a3,5
     668:	0000                	unimp
     66a:	00035617          	auipc	a2,0x35
     66e:	0500                	addi	s0,sp,640
     670:	0125                	addi	sp,sp,9
     672:	9511                	srai	a0,a0,0x24
     674:	0006                	c.slli	zero,0x1
     676:	0000                	unimp
     678:	0001cd17          	auipc	s10,0x1c
     67c:	0500                	addi	s0,sp,640
     67e:	0126                	slli	sp,sp,0x9
     680:	00005d07          	0x5d07
     684:	0400                	addi	s0,sp,512
     686:	00032817          	auipc	a6,0x32
     68a:	0500                	addi	s0,sp,640
     68c:	9b0b0127          	0x9b0b0127
     690:	0006                	c.slli	zero,0x1
     692:	0800                	addi	s0,sp,16
     694:	0f00                	addi	s0,sp,912
     696:	5c04                	lw	s1,56(s0)
     698:	0006                	c.slli	zero,0x1
     69a:	0f00                	addi	s0,sp,912
     69c:	4f04                	lw	s1,24(a4)
     69e:	0006                	c.slli	zero,0x1
     6a0:	1900                	addi	s0,sp,176
     6a2:	0012                	c.slli	zero,0x4
     6a4:	0000                	unimp
     6a6:	050e                	slli	a0,a0,0x3
     6a8:	da08013f 17000006 	0x17000006da08013f
     6b0:	03ad                	addi	t2,t2,11
     6b2:	0000                	unimp
     6b4:	4005                	c.li	zero,1
     6b6:	1201                	addi	tp,tp,-32
     6b8:	06da                	slli	a3,a3,0x16
     6ba:	0000                	unimp
     6bc:	1700                	addi	s0,sp,928
     6be:	03da                	slli	t2,t2,0x16
     6c0:	0000                	unimp
     6c2:	4105                	li	sp,1
     6c4:	1201                	addi	tp,tp,-32
     6c6:	06da                	slli	a3,a3,0x16
     6c8:	0000                	unimp
     6ca:	1706                	slli	a4,a4,0x21
     6cc:	03f6                	slli	t2,t2,0x1d
     6ce:	0000                	unimp
     6d0:	4205                	li	tp,1
     6d2:	1201                	addi	tp,tp,-32
     6d4:	003a                	c.slli	zero,0xe
     6d6:	0000                	unimp
     6d8:	000c                	0xc
     6da:	3a08                	fld	fa0,48(a2)
     6dc:	0000                	unimp
     6de:	ea00                	fsw	fs0,16(a2)
     6e0:	0006                	c.slli	zero,0x1
     6e2:	0900                	addi	s0,sp,144
     6e4:	0064                	addi	s1,sp,12
     6e6:	0000                	unimp
     6e8:	0002                	c.slli64	zero
     6ea:	d01a                	sw	t1,32(sp)
     6ec:	8005                	srli	s0,s0,0x1
     6ee:	0702                	c.slli64	a4
     6f0:	07ff                	0x7ff
     6f2:	0000                	unimp
     6f4:	00042317          	auipc	t1,0x42
     6f8:	0500                	addi	s0,sp,640
     6fa:	0282                	c.slli64	t0
     6fc:	6418                	flw	fa4,8(s0)
     6fe:	0000                	unimp
     700:	0000                	unimp
     702:	0003e017          	auipc	zero,0x3e
     706:	0500                	addi	s0,sp,640
     708:	af120283          	lb	t0,-1295(tp) # fffe0af1 <__stack_top+0xeffdfaf1>
     70c:	0005                	c.nop	1
     70e:	0400                	addi	s0,sp,512
     710:	00024417          	auipc	s0,0x24
     714:	0500                	addi	s0,sp,640
     716:	0284                	addi	s1,sp,320
     718:	ff10                	fsw	fa2,56(a4)
     71a:	08000007          	0x8000007
     71e:	00048117          	auipc	sp,0x48
     722:	0500                	addi	s0,sp,640
     724:	0285                	addi	t0,t0,1
     726:	00019417          	auipc	s0,0x19
     72a:	2400                	fld	fs0,8(s0)
     72c:	00015d17          	auipc	s10,0x15
     730:	0500                	addi	s0,sp,640
     732:	0286                	slli	t0,t0,0x1
     734:	00005d0f          	0x5d0f
     738:	4800                	lw	s0,16(s0)
     73a:	00035117          	auipc	sp,0x35
     73e:	0500                	addi	s0,sp,640
     740:	562c0287          	0x562c0287
     744:	0000                	unimp
     746:	5000                	lw	s0,32(s0)
     748:	00049717          	auipc	a4,0x49
     74c:	0500                	addi	s0,sp,640
     74e:	0288                	addi	a0,sp,320
     750:	a11a                	fsd	ft6,128(sp)
     752:	0006                	c.slli	zero,0x1
     754:	5800                	lw	s0,48(s0)
     756:	00035c17          	auipc	s8,0x35
     75a:	0500                	addi	s0,sp,640
     75c:	0289                	addi	t0,t0,2
     75e:	fe16                	fsw	ft5,60(sp)
     760:	0000                	unimp
     762:	6800                	flw	fs0,16(s0)
     764:	00049c17          	auipc	s8,0x49
     768:	0500                	addi	s0,sp,640
     76a:	028a                	slli	t0,t0,0x2
     76c:	fe16                	fsw	ft5,60(sp)
     76e:	0000                	unimp
     770:	7000                	flw	fs0,32(s0)
     772:	00008517          	auipc	a0,0x8
     776:	0500                	addi	s0,sp,640
     778:	fe16028b          	0xfe16028b
     77c:	0000                	unimp
     77e:	7800                	flw	fs0,48(s0)
     780:	00045417          	auipc	s0,0x45
     784:	0500                	addi	s0,sp,640
     786:	028c                	addi	a1,sp,320
     788:	0f10                	addi	a2,sp,912
     78a:	0008                	0x8
     78c:	8000                	0x8000
     78e:	00023817          	auipc	a6,0x23
     792:	0500                	addi	s0,sp,640
     794:	028d                	addi	t0,t0,3
     796:	1f10                	addi	a2,sp,944
     798:	0008                	0x8
     79a:	8800                	0x8800
     79c:	00040317          	auipc	t1,0x40
     7a0:	0500                	addi	s0,sp,640
     7a2:	028e                	slli	t0,t0,0x3
     7a4:	00005d0f          	0x5d0f
     7a8:	a000                	fsd	fs0,0(s0)
     7aa:	00012317          	auipc	t1,0x12
     7ae:	0500                	addi	s0,sp,640
     7b0:	fe16028f          	0xfe16028f
     7b4:	0000                	unimp
     7b6:	a400                	fsd	fs0,8(s0)
     7b8:	00007617          	auipc	a2,0x7
     7bc:	0500                	addi	s0,sp,640
     7be:	0290                	addi	a2,sp,320
     7c0:	fe16                	fsw	ft5,60(sp)
     7c2:	0000                	unimp
     7c4:	ac00                	fsd	fs0,24(s0)
     7c6:	00011217          	auipc	tp,0x11
     7ca:	0500                	addi	s0,sp,640
     7cc:	0291                	addi	t0,t0,4
     7ce:	fe16                	fsw	ft5,60(sp)
     7d0:	0000                	unimp
     7d2:	b400                	fsd	fs0,40(s0)
     7d4:	00002b17          	auipc	s6,0x2
     7d8:	0500                	addi	s0,sp,640
     7da:	0292                	slli	t0,t0,0x4
     7dc:	fe16                	fsw	ft5,60(sp)
     7de:	0000                	unimp
     7e0:	bc00                	fsd	fs0,56(s0)
     7e2:	00003a17          	auipc	s4,0x3
     7e6:	0500                	addi	s0,sp,640
     7e8:	fe160293          	addi	t0,a2,-31 # 7799 <_etext+0x6f81>
     7ec:	0000                	unimp
     7ee:	c400                	sw	s0,8(s0)
     7f0:	00030417          	auipc	s0,0x30
     7f4:	0500                	addi	s0,sp,640
     7f6:	0294                	addi	a3,sp,320
     7f8:	5d08                	lw	a0,56(a0)
     7fa:	0000                	unimp
     7fc:	cc00                	sw	s0,24(s0)
     7fe:	0800                	addi	s0,sp,16
     800:	05b5                	addi	a1,a1,13
     802:	0000                	unimp
     804:	0000080f          	0x80f
     808:	6409                	lui	s0,0x2
     80a:	0000                	unimp
     80c:	1900                	addi	s0,sp,176
     80e:	0800                	addi	s0,sp,16
     810:	05b5                	addi	a1,a1,13
     812:	0000                	unimp
     814:	081f 0000 6409      	0x64090000081f
     81a:	0000                	unimp
     81c:	0700                	addi	s0,sp,896
     81e:	0800                	addi	s0,sp,16
     820:	05b5                	addi	a1,a1,13
     822:	0000                	unimp
     824:	0000082f          	0x82f
     828:	6409                	lui	s0,0x2
     82a:	0000                	unimp
     82c:	1700                	addi	s0,sp,928
     82e:	1a00                	addi	s0,sp,304
     830:	05f0                	addi	a2,sp,716
     832:	0299                	addi	t0,t0,6
     834:	00085607          	0x85607
     838:	1700                	addi	s0,sp,928
     83a:	028e                	slli	t0,t0,0x3
     83c:	0000                	unimp
     83e:	9c05                	0x9c05
     840:	1b02                	slli	s6,s6,0x20
     842:	0856                	slli	a6,a6,0x15
     844:	0000                	unimp
     846:	1700                	addi	s0,sp,928
     848:	0285                	addi	t0,t0,1
     84a:	0000                	unimp
     84c:	9d05                	0x9d05
     84e:	1802                	slli	a6,a6,0x20
     850:	0866                	slli	a6,a6,0x19
     852:	0000                	unimp
     854:	0078                	addi	a4,sp,12
     856:	f408                	fsw	fa0,40(s0)
     858:	0002                	c.slli64	zero
     85a:	6600                	flw	fs0,8(a2)
     85c:	0008                	0x8
     85e:	0900                	addi	s0,sp,144
     860:	0064                	addi	s1,sp,12
     862:	0000                	unimp
     864:	001d                	c.nop	7
     866:	6408                	flw	fa0,8(s0)
     868:	0000                	unimp
     86a:	7600                	flw	fs0,40(a2)
     86c:	0008                	0x8
     86e:	0900                	addi	s0,sp,144
     870:	0064                	addi	s1,sp,12
     872:	0000                	unimp
     874:	001d                	c.nop	7
     876:	7e05f01b          	0x7e05f01b
     87a:	0302                	c.slli64	t1
     87c:	0000089b          	0x89b
     880:	a61c                	fsd	fa5,8(a2)
     882:	05000003          	lb	zero,80(zero) # 50 <_start+0x50>
     886:	0295                	addi	t0,t0,5
     888:	0006ea0b          	0x6ea0b
     88c:	1c00                	addi	s0,sp,560
     88e:	046e                	slli	s0,s0,0x1b
     890:	0000                	unimp
     892:	9e05                	0x9e05
     894:	0b02                	c.slli64	s6
     896:	0000082f          	0x82f
     89a:	0800                	addi	s0,sp,16
     89c:	05b5                	addi	a1,a1,13
     89e:	0000                	unimp
     8a0:	000008ab          	0x8ab
     8a4:	6409                	lui	s0,0x2
     8a6:	0000                	unimp
     8a8:	1800                	addi	s0,sp,48
     8aa:	1d00                	addi	s0,sp,688
     8ac:	0000006b          	0x6b
     8b0:	08ab040f          	0x8ab040f
     8b4:	0000                	unimp
     8b6:	c11e                	sw	t2,128(sp)
     8b8:	0008                	0x8
     8ba:	1400                	addi	s0,sp,544
     8bc:	0000045b          	0x45b
     8c0:	0f00                	addi	s0,sp,912
     8c2:	b604                	fsd	fs1,40(a2)
     8c4:	0008                	0x8
     8c6:	0f00                	addi	s0,sp,912
     8c8:	7e04                	flw	fs1,56(a2)
     8ca:	0001                	nop
     8cc:	1e00                	addi	s0,sp,816
     8ce:	08d8                	addi	a4,sp,84
     8d0:	0000                	unimp
     8d2:	5d14                	lw	a3,56(a0)
     8d4:	0000                	unimp
     8d6:	0000                	unimp
     8d8:	08de040f          	0x8de040f
     8dc:	0000                	unimp
     8de:	08cd040f          	0x8cd040f
     8e2:	0000                	unimp
     8e4:	4f08                	lw	a0,24(a4)
     8e6:	0006                	c.slli	zero,0x1
     8e8:	f400                	fsw	fs0,40(s0)
     8ea:	0008                	0x8
     8ec:	0900                	addi	s0,sp,144
     8ee:	0064                	addi	s1,sp,12
     8f0:	0000                	unimp
     8f2:	0002                	c.slli64	zero
     8f4:	171f 0004 0500      	0x5000004171f
     8fa:	032e                	slli	t1,t1,0xb
     8fc:	00045b17          	auipc	s6,0x45
     900:	1f00                	addi	s0,sp,944
     902:	0410                	addi	a2,sp,512
     904:	0000                	unimp
     906:	2f05                	jal	1036 <_etext+0x81e>
     908:	04611d03          	lh	s10,70(sp) # 35780 <_etext+0x34f68>
     90c:	0000                	unimp
     90e:	af20                	fsd	fs0,88(a4)
     910:	0004                	0x4
     912:	0100                	addi	s0,sp,128
     914:	005d0503          	lb	a0,5(s10) # 15731 <_etext+0x14f19>
     918:	0000                	unimp
     91a:	01c0                	addi	s0,sp,196
     91c:	0000                	unimp
     91e:	0040                	addi	s0,sp,4
     920:	0000                	unimp
     922:	9c01                	0x9c01
     924:	6121                	addi	sp,sp,64
     926:	0100                	addi	s0,sp,128
     928:	0904                	addi	s1,sp,144
     92a:	005d                	c.nop	23
     92c:	0000                	unimp
     92e:	9102                	jalr	sp
     930:	216c                	fld	fa1,192(a0)
     932:	0062                	c.slli	zero,0x18
     934:	0501                	addi	a0,a0,0
     936:	5d09                	li	s10,-30
     938:	0000                	unimp
     93a:	0200                	addi	s0,sp,256
     93c:	6891                	lui	a7,0x4
     93e:	6321                	lui	t1,0x8
     940:	0100                	addi	s0,sp,128
     942:	0906                	slli	s2,s2,0x1
     944:	005d                	c.nop	23
     946:	0000                	unimp
     948:	9102                	jalr	sp
     94a:	0064                	addi	s1,sp,12
     94c:	ae00                	fsd	fs0,24(a2)
     94e:	0004                	0x4
     950:	0400                	addi	s0,sp,512
     952:	cd00                	sw	s0,24(a0)
     954:	0001                	nop
     956:	0400                	addi	s0,sp,512
     958:	d401                	beqz	s0,860 <_etext+0x48>
     95a:	0001                	nop
     95c:	0c00                	addi	s0,sp,528
     95e:	0530                	addi	a2,sp,648
     960:	0000                	unimp
     962:	02b1                	addi	t0,t0,12
     964:	0000                	unimp
     966:	0200                	addi	s0,sp,256
     968:	0000                	unimp
     96a:	04b4                	addi	a3,sp,584
     96c:	0000                	unimp
     96e:	0111                	addi	sp,sp,4
     970:	0000                	unimp
     972:	0102                	c.slli64	sp
     974:	f306                	fsw	ft1,164(sp)
     976:	0002                	c.slli64	zero
     978:	0300                	addi	s0,sp,384
     97a:	05ea                	slli	a1,a1,0x1a
     97c:	0000                	unimp
     97e:	2b02                	fld	fs6,0(sp)
     980:	3818                	fld	fa4,48(s0)
     982:	0000                	unimp
     984:	0200                	addi	s0,sp,256
     986:	0801                	addi	a6,a6,0
     988:	02f1                	addi	t0,t0,28
     98a:	0000                	unimp
     98c:	0202                	c.slli64	tp
     98e:	0d05                	addi	s10,s10,1
     990:	02000003          	lb	zero,32(zero) # 20 <_start+0x20>
     994:	0702                	c.slli64	a4
     996:	021c                	addi	a5,sp,256
     998:	0000                	unimp
     99a:	0402                	c.slli64	s0
     99c:	a105                	j	dbc <_etext+0x5a4>
     99e:	0000                	unimp
     9a0:	0300                	addi	s0,sp,384
     9a2:	056d                	addi	a0,a0,27
     9a4:	0000                	unimp
     9a6:	4f02                	lw	t5,0(sp)
     9a8:	6019                	c.lui	zero,0x6
     9aa:	0000                	unimp
     9ac:	0200                	addi	s0,sp,256
     9ae:	0704                	addi	s1,sp,896
     9b0:	0050                	addi	a2,sp,4
     9b2:	0000                	unimp
     9b4:	0802                	c.slli64	a6
     9b6:	9c05                	0x9c05
     9b8:	0000                	unimp
     9ba:	0200                	addi	s0,sp,256
     9bc:	0708                	addi	a0,sp,896
     9be:	0000004b          	fnmsub.s	ft0,ft0,ft0,ft0,rne
     9c2:	0404                	addi	s1,sp,512
     9c4:	6905                	lui	s2,0x1
     9c6:	746e                	flw	fs0,248(sp)
     9c8:	0300                	addi	s0,sp,384
     9ca:	069f 0000 e802      	0xe8020000069f
     9d0:	881a                	mv	a6,t1
     9d2:	0000                	unimp
     9d4:	0200                	addi	s0,sp,256
     9d6:	0704                	addi	s1,sp,896
     9d8:	0055                	c.nop	21
     9da:	0000                	unimp
     9dc:	0005ec03          	0x5ec03
     9e0:	0300                	addi	s0,sp,384
     9e2:	1318                	addi	a4,sp,416
     9e4:	002c                	addi	a1,sp,8
     9e6:	0000                	unimp
     9e8:	00056f03          	0x56f03
     9ec:	0300                	addi	s0,sp,384
     9ee:	1430                	addi	a2,sp,552
     9f0:	0054                	addi	a3,sp,4
     9f2:	0000                	unimp
     9f4:	0006a103          	lw	sp,0(a3)
     9f8:	0300                	addi	s0,sp,384
     9fa:	1552                	slli	a0,a0,0x34
     9fc:	007c                	addi	a5,sp,12
     9fe:	0000                	unimp
     a00:	0005cc03          	lbu	s8,0(a1)
     a04:	0400                	addi	s0,sp,512
     a06:	100d                	c.nop	-29
     a08:	000000bf 00c50405 	0xc50405000000bf
     a10:	0000                	unimp
     a12:	d506                	sw	ra,168(sp)
     a14:	0000                	unimp
     a16:	0700                	addi	s0,sp,896
     a18:	000000a7          	0xa7
     a1c:	0000a707          	flw	fa4,0(ra)
     a20:	0000                	unimp
     a22:	b308                	fsd	fa0,32(a4)
     a24:	0000                	unimp
     a26:	e500                	fsw	fs0,8(a0)
     a28:	0000                	unimp
     a2a:	0900                	addi	s0,sp,144
     a2c:	0088                	addi	a0,sp,64
     a2e:	0000                	unimp
     a30:	0000                	unimp
     a32:	ca0a                	sw	sp,20(sp)
     a34:	0006                	c.slli	zero,0x1
     a36:	0400                	addi	s0,sp,512
     a38:	150e                	slli	a0,a0,0x23
     a3a:	00d5                	addi	ra,ra,21
     a3c:	0000                	unimp
     a3e:	190a                	slli	s2,s2,0x22
     a40:	0006                	c.slli	zero,0x1
     a42:	0400                	addi	s0,sp,512
     a44:	00d5150f          	0xd5150f
     a48:	0000                	unimp
     a4a:	8804070b          	0x8804070b
     a4e:	0000                	unimp
     a50:	0500                	addi	s0,sp,640
     a52:	0124                	addi	s1,sp,136
     a54:	0124                	addi	s1,sp,136
     a56:	0000                	unimp
     a58:	790c                	flw	fa1,48(a0)
     a5a:	0006                	c.slli	zero,0x1
     a5c:	0000                	unimp
     a5e:	7b0c                	flw	fa1,48(a4)
     a60:	0006                	c.slli	zero,0x1
     a62:	0100                	addi	s0,sp,128
     a64:	3f0c                	fld	fa1,56(a4)
     a66:	0006                	c.slli	zero,0x1
     a68:	0200                	addi	s0,sp,256
     a6a:	e60c                	fsw	fa1,8(a2)
     a6c:	0004                	0x4
     a6e:	0300                	addi	s0,sp,384
     a70:	0300                	addi	s0,sp,384
     a72:	000006b7          	lui	a3,0x0
     a76:	2905                	jal	ea6 <_etext+0x68e>
     a78:	fd02                	fsw	ft0,184(sp)
     a7a:	0000                	unimp
     a7c:	0d00                	addi	s0,sp,656
     a7e:	0510                	addi	a2,sp,640
     a80:	092d                	addi	s2,s2,11
     a82:	016d                	addi	sp,sp,27
     a84:	0000                	unimp
     a86:	690e                	flw	fs2,192(sp)
     a88:	0064                	addi	s1,sp,12
     a8a:	2f05                	jal	11ba <_etext+0x9a2>
     a8c:	00009b0b          	0x9b0b
     a90:	0000                	unimp
     a92:	0006960f          	0x6960f
     a96:	0500                	addi	s0,sp,640
     a98:	0b30                	addi	a2,sp,408
     a9a:	0000009b          	0x9b
     a9e:	0f04                	addi	s1,sp,912
     aa0:	008d                	addi	ra,ra,3
     aa2:	0000                	unimp
     aa4:	3105                	jal	6c4 <extract_ie_code+0x10>
     aa6:	2415                	jal	cca <_etext+0x4b2>
     aa8:	0001                	nop
     aaa:	0800                	addi	s0,sp,16
     aac:	0003b50f          	0x3b50f
     ab0:	0500                	addi	s0,sp,640
     ab2:	0b32                	slli	s6,s6,0xc
     ab4:	0000009b          	0x9b
     ab8:	000c                	0xc
     aba:	00071303          	lh	t1,0(a4) # 49748 <_etext+0x48f30>
     abe:	0500                	addi	s0,sp,640
     ac0:	01300333          	add	t1,zero,s3
     ac4:	0000                	unimp
     ac6:	0006ab03          	lw	s6,0(a3) # 0 <_start>
     aca:	0500                	addi	s0,sp,640
     acc:	1036                	c.slli	zero,0x2d
     ace:	0185                	addi	gp,gp,1
     ad0:	0000                	unimp
     ad2:	0405                	addi	s0,s0,1
     ad4:	0000018b          	0x18b
     ad8:	9606                	add	a2,a2,ra
     ada:	0001                	nop
     adc:	0700                	addi	s0,sp,896
     ade:	0000009b          	0x9b
     ae2:	0800                	addi	s0,sp,16
     ae4:	0179                	addi	sp,sp,30
     ae6:	0000                	unimp
     ae8:	01a6                	slli	gp,gp,0x9
     aea:	0000                	unimp
     aec:	8809                	andi	s0,s0,2
     aee:	0000                	unimp
     af0:	1300                	addi	s0,sp,416
     af2:	0a00                	addi	s0,sp,272
     af4:	05c2                	slli	a1,a1,0x10
     af6:	0000                	unimp
     af8:	3705                	jal	a18 <_etext+0x200>
     afa:	9614                	0x9614
     afc:	0001                	nop
     afe:	1000                	addi	s0,sp,32
     b00:	01a6                	slli	gp,gp,0x9
     b02:	0000                	unimp
     b04:	0701                	addi	a4,a4,0
     b06:	050d                	addi	a0,a0,3
     b08:	00014003          	lbu	zero,0(sp)
     b0c:	0810                	addi	a2,sp,16
     b0e:	016d                	addi	sp,sp,27
     b10:	0000                	unimp
     b12:	01d0                	addi	a2,sp,196
     b14:	0000                	unimp
     b16:	8809                	andi	s0,s0,2
     b18:	0000                	unimp
     b1a:	1300                	addi	s0,sp,416
     b1c:	1100                	addi	s0,sp,160
     b1e:	04ed                	addi	s1,s1,27
     b20:	0000                	unimp
     b22:	0801                	addi	a6,a6,0
     b24:	c012                	sw	tp,0(sp)
     b26:	0001                	nop
     b28:	0500                	addi	s0,sp,640
     b2a:	00000003          	lb	zero,0(zero) # 0 <_start>
     b2e:	1210                	addi	a2,sp,288
     b30:	051c                	addi	a5,sp,640
     b32:	0000                	unimp
     b34:	c501                	beqz	a0,b3c <_etext+0x324>
     b36:	6406                	flw	fs0,64(sp)
     b38:	0006                	c.slli	zero,0x1
     b3a:	5000                	lw	s0,32(s0)
     b3c:	0000                	unimp
     b3e:	0100                	addi	s0,sp,128
     b40:	089c                	addi	a5,sp,80
     b42:	0002                	c.slli64	zero
     b44:	1300                	addi	s0,sp,416
     b46:	0578                	addi	a4,sp,652
     b48:	0000                	unimp
     b4a:	c501                	beqz	a0,b52 <_etext+0x33a>
     b4c:	00009b23          	sh	zero,22(ra)
     b50:	0200                	addi	s0,sp,256
     b52:	6c91                	lui	s9,0x4
     b54:	1200                	addi	s0,sp,288
     b56:	0648                	addi	a0,sp,772
     b58:	0000                	unimp
     b5a:	a301                	j	105a <_etext+0x842>
     b5c:	5806                	lw	a6,96(sp)
     b5e:	0005                	c.nop	1
     b60:	0c00                	addi	s0,sp,528
     b62:	0001                	nop
     b64:	0100                	addi	s0,sp,128
     b66:	2e9c                	fld	fa5,24(a3)
     b68:	0002                	c.slli64	zero
     b6a:	1400                	addi	s0,sp,544
     b6c:	0578                	addi	a4,sp,652
     b6e:	0000                	unimp
     b70:	a501                	j	1170 <_etext+0x958>
     b72:	00009b0b          	0x9b0b
     b76:	0200                	addi	s0,sp,256
     b78:	6c91                	lui	s9,0x4
     b7a:	1500                	addi	s0,sp,672
     b7c:	0652                	slli	a2,a2,0x14
     b7e:	0000                	unimp
     b80:	8d01                	sub	a0,a0,s0
     b82:	3806                	fld	fa6,96(sp)
     b84:	0005                	c.nop	1
     b86:	2000                	fld	fs0,0(s0)
     b88:	0000                	unimp
     b8a:	0100                	addi	s0,sp,128
     b8c:	549c                	lw	a5,40(s1)
     b8e:	0002                	c.slli64	zero
     b90:	1300                	addi	s0,sp,416
     b92:	060c                	addi	a1,sp,768
     b94:	0000                	unimp
     b96:	8d01                	sub	a0,a0,s0
     b98:	00009b1b          	0x9b1b
     b9c:	0200                	addi	s0,sp,256
     b9e:	6c91                	lui	s9,0x4
     ba0:	1500                	addi	s0,sp,672
     ba2:	0724                	addi	s1,sp,904
     ba4:	0000                	unimp
     ba6:	7b01                	lui	s6,0xfffe0
     ba8:	f406                	fsw	ft1,40(sp)
     baa:	0004                	0x4
     bac:	4400                	lw	s0,8(s0)
     bae:	0000                	unimp
     bb0:	0100                	addi	s0,sp,128
     bb2:	989c                	0x989c
     bb4:	0002                	c.slli64	zero
     bb6:	1300                	addi	s0,sp,416
     bb8:	0630                	addi	a2,sp,776
     bba:	0000                	unimp
     bbc:	7b01                	lui	s6,0xfffe0
     bbe:	9b26                	add	s6,s6,s1
     bc0:	0000                	unimp
     bc2:	0200                	addi	s0,sp,256
     bc4:	5c91                	li	s9,-28
     bc6:	00057813          	andi	a6,a0,0
     bca:	0100                	addi	s0,sp,128
     bcc:	009b3f7b          	0x9b3f7b
     bd0:	0000                	unimp
     bd2:	9102                	jalr	sp
     bd4:	1458                	addi	a4,sp,548
     bd6:	065e                	slli	a2,a2,0x17
     bd8:	0000                	unimp
     bda:	7e01                	lui	t3,0xfffe0
     bdc:	980d                	andi	s0,s0,-29
     bde:	0002                	c.slli64	zero
     be0:	0200                	addi	s0,sp,256
     be2:	6c91                	lui	s9,0x4
     be4:	0500                	addi	s0,sp,640
     be6:	9b04                	0x9b04
     be8:	0000                	unimp
     bea:	1500                	addi	s0,sp,672
     bec:	05f4                	addi	a3,sp,716
     bee:	0000                	unimp
     bf0:	7001                	c.lui	zero,0xfffe0
     bf2:	bc06                	fsd	ft1,56(sp)
     bf4:	0004                	0x4
     bf6:	3800                	fld	fs0,48(s0)
     bf8:	0000                	unimp
     bfa:	0100                	addi	s0,sp,128
     bfc:	d39c                	sw	a5,32(a5)
     bfe:	0002                	c.slli64	zero
     c00:	1300                	addi	s0,sp,416
     c02:	0630                	addi	a2,sp,776
     c04:	0000                	unimp
     c06:	7001                	c.lui	zero,0xfffe0
     c08:	00009b27          	0x9b27
     c0c:	0200                	addi	s0,sp,256
     c0e:	5c91                	li	s9,-28
     c10:	8214                	0x8214
     c12:	0006                	c.slli	zero,0x1
     c14:	0100                	addi	s0,sp,128
     c16:	02980c73          	0x2980c73
     c1a:	0000                	unimp
     c1c:	9102                	jalr	sp
     c1e:	006c                	addi	a1,sp,12
     c20:	8d15                	sub	a0,a0,a3
     c22:	0005                	c.nop	1
     c24:	0100                	addi	s0,sp,128
     c26:	065c                	addi	a5,sp,772
     c28:	041c                	addi	a5,sp,512
     c2a:	0000                	unimp
     c2c:	00a0                	addi	s0,sp,72
     c2e:	0000                	unimp
     c30:	9c01                	0x9c01
     c32:	0326                	slli	t1,t1,0x9
     c34:	0000                	unimp
     c36:	00060c13          	mv	s8,a2
     c3a:	0100                	addi	s0,sp,128
     c3c:	215c                	fld	fa5,128(a0)
     c3e:	0000009b          	0x9b
     c42:	9102                	jalr	sp
     c44:	145c                	addi	a5,sp,548
     c46:	06e6                	slli	a3,a3,0x19
     c48:	0000                	unimp
     c4a:	5e01                	li	t3,-32
     c4c:	0003260b          	0x3260b
     c50:	0200                	addi	s0,sp,256
     c52:	6c91                	lui	s9,0x4
     c54:	7f14                	flw	fa3,56(a4)
     c56:	0005                	c.nop	1
     c58:	0100                	addi	s0,sp,128
     c5a:	0a5f 008f 0000      	0x8f0a5f
     c60:	9102                	jalr	sp
     c62:	06dc146b          	0x6dc146b
     c66:	0000                	unimp
     c68:	5f01                	li	t5,-32
     c6a:	8f20                	0x8f20
     c6c:	0000                	unimp
     c6e:	0200                	addi	s0,sp,256
     c70:	6a91                	lui	s5,0x4
     c72:	0500                	addi	s0,sp,640
     c74:	8f04                	0x8f04
     c76:	0000                	unimp
     c78:	1500                	addi	s0,sp,672
     c7a:	05d9                	addi	a1,a1,22
     c7c:	0000                	unimp
     c7e:	4c01                	li	s8,0
     c80:	a006                	fsd	ft1,0(sp)
     c82:	7c000003          	lb	zero,1984(zero) # 7c0 <trap_init+0x10>
     c86:	0000                	unimp
     c88:	0100                	addi	s0,sp,128
     c8a:	7f9c                	flw	fa5,56(a5)
     c8c:	13000003          	lb	zero,304(zero) # 130 <_stext+0x90>
     c90:	060c                	addi	a1,sp,768
     c92:	0000                	unimp
     c94:	4c01                	li	s8,0
     c96:	9b20                	0x9b20
     c98:	0000                	unimp
     c9a:	0200                	addi	s0,sp,256
     c9c:	5c91                	li	s9,-28
     c9e:	fd14                	fsw	fa3,56(a0)
     ca0:	0006                	c.slli	zero,0x1
     ca2:	0100                	addi	s0,sp,128
     ca4:	0b4e                	slli	s6,s6,0x13
     ca6:	0326                	slli	t1,t1,0x9
     ca8:	0000                	unimp
     caa:	9102                	jalr	sp
     cac:	1468                	addi	a0,sp,556
     cae:	057f                	0x57f
     cb0:	0000                	unimp
     cb2:	4f01                	li	t5,0
     cb4:	8f0a                	mv	t5,sp
     cb6:	0000                	unimp
     cb8:	0200                	addi	s0,sp,256
     cba:	6f91                	lui	t6,0x4
     cbc:	dc14                	sw	a3,56(s0)
     cbe:	0006                	c.slli	zero,0x1
     cc0:	0100                	addi	s0,sp,128
     cc2:	008f204f          	fnmadd.s	ft0,ft10,fs0,ft0,rdn
     cc6:	0000                	unimp
     cc8:	9102                	jalr	sp
     cca:	3b120067          	jr	945(tp) # 0 <_start>
     cce:	01000007          	0x1000007
     cd2:	0330063f 00700000 	0x7000000330063f
     cda:	0000                	unimp
     cdc:	9c01                	0x9c01
     cde:	000003c3          	fmadd.s	ft7,ft0,ft0,ft0,rne
     ce2:	00057813          	andi	a6,a0,0
     ce6:	0100                	addi	s0,sp,128
     ce8:	00a73b3f 91020000 	0x9102000000a73b3f
     cf0:	165c                	addi	a5,sp,804
     cf2:	7065                	c.lui	zero,0xffff9
     cf4:	3f010063          	beq	sp,a6,10d4 <_etext+0x8bc>
     cf8:	a765                	j	14a0 <_etext+0xc88>
     cfa:	0000                	unimp
     cfc:	0200                	addi	s0,sp,256
     cfe:	5891                	li	a7,-28
     d00:	0c14                	addi	a3,sp,528
     d02:	0006                	c.slli	zero,0x1
     d04:	0100                	addi	s0,sp,128
     d06:	0c41                	addi	s8,s8,16
     d08:	0000009b          	0x9b
     d0c:	9102                	jalr	sp
     d0e:	006c                	addi	a1,sp,12
     d10:	00074d17          	auipc	s10,0x74
     d14:	0100                	addi	s0,sp,128
     d16:	0a35                	addi	s4,s4,13
     d18:	0000009b          	0x9b
     d1c:	02f4                	addi	a3,sp,332
     d1e:	0000                	unimp
     d20:	003c                	addi	a5,sp,8
     d22:	0000                	unimp
     d24:	9c01                	0x9c01
     d26:	03fc                	addi	a5,sp,460
     d28:	0000                	unimp
     d2a:	9f14                	0x9f14
     d2c:	0005                	c.nop	1
     d2e:	0100                	addi	s0,sp,128
     d30:	02980c37          	lui	s8,0x2980
     d34:	0000                	unimp
     d36:	9102                	jalr	sp
     d38:	146c                	addi	a1,sp,556
     d3a:	060c                	addi	a1,sp,768
     d3c:	0000                	unimp
     d3e:	3801                	jal	54e <isr_default+0x16>
     d40:	00009b0b          	0x9b0b
     d44:	0200                	addi	s0,sp,256
     d46:	6891                	lui	a7,0x4
     d48:	1500                	addi	s0,sp,672
     d4a:	0504                	addi	s1,sp,640
     d4c:	0000                	unimp
     d4e:	2401                	jal	f4e <_etext+0x736>
     d50:	d406                	sw	ra,40(sp)
     d52:	0002                	c.slli64	zero
     d54:	2000                	fld	fs0,0(s0)
     d56:	0000                	unimp
     d58:	0100                	addi	s0,sp,128
     d5a:	219c                	fld	fa5,0(a1)
     d5c:	0004                	0x4
     d5e:	1600                	addi	s0,sp,800
     d60:	6469                	lui	s0,0x1a
     d62:	0100                	addi	s0,sp,128
     d64:	4024                	lw	s1,64(s0)
     d66:	0000009b          	0x9b
     d6a:	9102                	jalr	sp
     d6c:	006c                	addi	a1,sp,12
     d6e:	c815                	beqz	s0,da2 <_etext+0x58a>
     d70:	0004                	0x4
     d72:	0100                	addi	s0,sp,128
     d74:	0619                	addi	a2,a2,6
     d76:	0258                	addi	a4,sp,260
     d78:	0000                	unimp
     d7a:	007c                	addi	a5,sp,12
     d7c:	0000                	unimp
     d7e:	9c01                	0x9c01
     d80:	0456                	slli	s0,s0,0x15
     d82:	0000                	unimp
     d84:	00060c13          	mv	s8,a2
     d88:	0100                	addi	s0,sp,128
     d8a:	2219                	jal	e90 <_etext+0x678>
     d8c:	0000009b          	0x9b
     d90:	9102                	jalr	sp
     d92:	145c                	addi	a5,sp,548
     d94:	000005b7          	lui	a1,0x0
     d98:	1c01                	addi	s8,s8,-32
     d9a:	980c                	0x980c
     d9c:	0002                	c.slli64	zero
     d9e:	0200                	addi	s0,sp,256
     da0:	6c91                	lui	s9,0x4
     da2:	1500                	addi	s0,sp,672
     da4:	000004db          	0x4db
     da8:	1401                	addi	s0,s0,-32
     daa:	2806                	fld	fa6,64(sp)
     dac:	0002                	c.slli64	zero
     dae:	3000                	fld	fs0,32(s0)
     db0:	0000                	unimp
     db2:	0100                	addi	s0,sp,128
     db4:	8b9c                	0x8b9c
     db6:	0004                	0x4
     db8:	1300                	addi	s0,sp,416
     dba:	070e                	slli	a4,a4,0x3
     dbc:	0000                	unimp
     dbe:	1401                	addi	s0,s0,-32
     dc0:	0002981b          	0x2981b
     dc4:	0200                	addi	s0,sp,256
     dc6:	6c91                	lui	s9,0x4
     dc8:	7616                	flw	fa2,100(sp)
     dca:	6c61                	lui	s8,0x18
     dcc:	0100                	addi	s0,sp,128
     dce:	2f14                	fld	fa3,24(a4)
     dd0:	0060                	addi	s0,sp,12
     dd2:	0000                	unimp
     dd4:	9102                	jalr	sp
     dd6:	0068                	addi	a0,sp,12
     dd8:	be18                	fsd	fa4,56(a2)
     dda:	0004                	0x4
     ddc:	0100                	addi	s0,sp,128
     dde:	0f0a                	slli	t5,t5,0x2
     de0:	0060                	addi	s0,sp,12
     de2:	0000                	unimp
     de4:	0200                	addi	s0,sp,256
     de6:	0000                	unimp
     de8:	0028                	addi	a0,sp,8
     dea:	0000                	unimp
     dec:	9c01                	0x9c01
     dee:	00070e13          	mv	t3,a4
     df2:	0100                	addi	s0,sp,128
     df4:	230a                	fld	ft6,128(sp)
     df6:	0298                	addi	a4,sp,320
     df8:	0000                	unimp
     dfa:	9102                	jalr	sp
     dfc:	006c                	addi	a1,sp,12
     dfe:	bf00                	fsd	fs0,56(a4)
     e00:	0001                	nop
     e02:	0400                	addi	s0,sp,512
     e04:	5800                	lw	s0,48(s0)
     e06:	04000003          	lb	zero,64(zero) # 40 <_start+0x40>
     e0a:	d401                	beqz	s0,d12 <_etext+0x4fa>
     e0c:	0001                	nop
     e0e:	0c00                	addi	s0,sp,528
     e10:	07a4                	addi	s1,sp,968
     e12:	0000                	unimp
     e14:	02b1                	addi	t0,t0,12
     e16:	0000                	unimp
     e18:	06b4                	addi	a3,sp,840
     e1a:	0000                	unimp
     e1c:	00fc                	addi	a5,sp,76
     e1e:	0000                	unimp
     e20:	0000050b          	0x50b
     e24:	0102                	c.slli64	sp
     e26:	f306                	fsw	ft1,164(sp)
     e28:	0002                	c.slli64	zero
     e2a:	0200                	addi	s0,sp,256
     e2c:	0801                	addi	a6,a6,0
     e2e:	02f1                	addi	t0,t0,28
     e30:	0000                	unimp
     e32:	0202                	c.slli64	tp
     e34:	0d05                	addi	s10,s10,1
     e36:	02000003          	lb	zero,32(zero) # 20 <_start+0x20>
     e3a:	0702                	c.slli64	a4
     e3c:	021c                	addi	a5,sp,256
     e3e:	0000                	unimp
     e40:	0402                	c.slli64	s0
     e42:	a105                	j	1262 <_etext+0xa4a>
     e44:	0000                	unimp
     e46:	0300                	addi	s0,sp,384
     e48:	056d                	addi	a0,a0,27
     e4a:	0000                	unimp
     e4c:	4f02                	lw	t5,0(sp)
     e4e:	5419                	li	s0,-26
     e50:	0000                	unimp
     e52:	0200                	addi	s0,sp,256
     e54:	0704                	addi	s1,sp,896
     e56:	0050                	addi	a2,sp,4
     e58:	0000                	unimp
     e5a:	0802                	c.slli64	a6
     e5c:	9c05                	0x9c05
     e5e:	0000                	unimp
     e60:	0200                	addi	s0,sp,256
     e62:	0708                	addi	a0,sp,896
     e64:	0000004b          	fnmsub.s	ft0,ft0,ft0,ft0,rne
     e68:	0404                	addi	s1,sp,512
     e6a:	6905                	lui	s2,0x1
     e6c:	746e                	flw	fs0,248(sp)
     e6e:	0300                	addi	s0,sp,384
     e70:	069f 0000 e802      	0xe8020000069f
     e76:	7c1a                	flw	fs8,164(sp)
     e78:	0000                	unimp
     e7a:	0200                	addi	s0,sp,256
     e7c:	0704                	addi	s1,sp,896
     e7e:	0055                	c.nop	21
     e80:	0000                	unimp
     e82:	00056f03          	0x56f03
     e86:	0300                	addi	s0,sp,384
     e88:	1430                	addi	a2,sp,552
     e8a:	0048                	addi	a0,sp,4
     e8c:	0000                	unimp
     e8e:	0006a103          	lw	sp,0(a3)
     e92:	0300                	addi	s0,sp,384
     e94:	1552                	slli	a0,a0,0x34
     e96:	0070                	addi	a2,sp,12
     e98:	0000                	unimp
     e9a:	0005cc03          	lbu	s8,0(a1) # 0 <_start>
     e9e:	0400                	addi	s0,sp,512
     ea0:	100d                	c.nop	-29
     ea2:	000000a7          	0xa7
     ea6:	0405                	addi	s0,s0,1
     ea8:	00ad                	addi	ra,ra,11
     eaa:	0000                	unimp
     eac:	bd06                	fsd	ft1,184(sp)
     eae:	0000                	unimp
     eb0:	0700                	addi	s0,sp,896
     eb2:	0000008f          	0x8f
     eb6:	00008f07          	0x8f07
     eba:	0000                	unimp
     ebc:	9b08                	0x9b08
     ebe:	0000                	unimp
     ec0:	cd00                	sw	s0,24(a0)
     ec2:	0000                	unimp
     ec4:	0900                	addi	s0,sp,144
     ec6:	007c                	addi	a5,sp,12
     ec8:	0000                	unimp
     eca:	0000                	unimp
     ecc:	ca0a                	sw	sp,20(sp)
     ece:	0006                	c.slli	zero,0x1
     ed0:	0400                	addi	s0,sp,512
     ed2:	150e                	slli	a0,a0,0x23
     ed4:	00bd                	addi	ra,ra,15
     ed6:	0000                	unimp
     ed8:	190a                	slli	s2,s2,0x22
     eda:	0006                	c.slli	zero,0x1
     edc:	0400                	addi	s0,sp,512
     ede:	00bd150f          	0xbd150f
     ee2:	0000                	unimp
     ee4:	0000cd0b          	0xcd0b
     ee8:	0100                	addi	s0,sp,128
     eea:	0e02                	c.slli64	t3
     eec:	0305                	addi	t1,t1,1
     eee:	0194                	addi	a3,sp,192
     ef0:	1000                	addi	s0,sp,32
     ef2:	0000d90b          	0xd90b
     ef6:	0100                	addi	s0,sp,128
     ef8:	03050e03          	lb	t3,48(a0) # 87a2 <_etext+0x7f8a>
     efc:	0190                	addi	a2,sp,192
     efe:	1000                	addi	s0,sp,32
     f00:	820c                	0x820c
     f02:	01000007          	0x1000007
     f06:	0b10                	addi	a2,sp,400
     f08:	0000008f          	0x8f
     f0c:	0704                	addi	s1,sp,896
     f0e:	0000                	unimp
     f10:	00ac                	addi	a1,sp,72
     f12:	0000                	unimp
     f14:	9c01                	0x9c01
     f16:	0158                	addi	a4,sp,132
     f18:	0000                	unimp
     f1a:	8e0d                	sub	a2,a2,a1
     f1c:	01000007          	0x1000007
     f20:	2110                	fld	fa2,0(a0)
     f22:	0000008f          	0x8f
     f26:	9102                	jalr	sp
     f28:	0e5c                	addi	a5,sp,788
     f2a:	7065                	c.lui	zero,0xffff9
     f2c:	10010063          	beqz	sp,102c <_etext+0x814>
     f30:	00008f33          	add	t5,ra,zero
     f34:	0200                	addi	s0,sp,256
     f36:	5891                	li	a7,-28
     f38:	0007eb0f          	0x7eb0f
     f3c:	0100                	addi	s0,sp,128
     f3e:	0f12                	slli	t5,t5,0x4
     f40:	007c                	addi	a5,sp,12
     f42:	0000                	unimp
     f44:	9102                	jalr	sp
     f46:	0f6c                	addi	a1,sp,924
     f48:	0775                	addi	a4,a4,29
     f4a:	0000                	unimp
     f4c:	1301                	addi	t1,t1,-32
     f4e:	0000830b          	0x830b
     f52:	0200                	addi	s0,sp,256
     f54:	6891                	lui	a7,0x4
     f56:	1000                	addi	s0,sp,32
     f58:	000007db          	0x7db
     f5c:	0b01                	addi	s6,s6,0
     f5e:	ec06                	fsw	ft1,24(sp)
     f60:	0006                	c.slli	zero,0x1
     f62:	1800                	addi	s0,sp,48
     f64:	0000                	unimp
     f66:	0100                	addi	s0,sp,128
     f68:	8d9c                	0x8d9c
     f6a:	0001                	nop
     f6c:	0d00                	addi	s0,sp,656
     f6e:	078e                	slli	a5,a5,0x3
     f70:	0000                	unimp
     f72:	0b01                	addi	s6,s6,0
     f74:	8f38                	0x8f38
     f76:	0000                	unimp
     f78:	0200                	addi	s0,sp,256
     f7a:	6c91                	lui	s9,0x4
     f7c:	650e                	flw	fa0,192(sp)
     f7e:	6370                	flw	fa2,68(a4)
     f80:	0100                	addi	s0,sp,128
     f82:	008f620b          	0x8f620b
     f86:	0000                	unimp
     f88:	9102                	jalr	sp
     f8a:	0068                	addi	a0,sp,12
     f8c:	6511                	lui	a0,0x4
     f8e:	01000007          	0x1000007
     f92:	0e05                	addi	t3,t3,1
     f94:	007c                	addi	a5,sp,12
     f96:	0000                	unimp
     f98:	06b4                	addi	a3,sp,840
     f9a:	0000                	unimp
     f9c:	0038                	addi	a4,sp,8
     f9e:	0000                	unimp
     fa0:	9c01                	0x9c01
     fa2:	6e0e                	flw	ft8,192(sp)
     fa4:	6d75                	lui	s10,0x1d
     fa6:	0100                	addi	s0,sp,128
     fa8:	2b05                	jal	14d8 <_etext+0xcc0>
     faa:	007c                	addi	a5,sp,12
     fac:	0000                	unimp
     fae:	9102                	jalr	sp
     fb0:	0f5c                	addi	a5,sp,916
     fb2:	0795                	addi	a5,a5,5
     fb4:	0000                	unimp
     fb6:	0701                	addi	a4,a4,0
     fb8:	00007c0f          	0x7c0f
     fbc:	0200                	addi	s0,sp,256
     fbe:	6c91                	lui	s9,0x4
     fc0:	0000                	unimp
     fc2:	0152                	slli	sp,sp,0x14
     fc4:	0000                	unimp
     fc6:	0004                	0x4
     fc8:	00000467          	jalr	s0,zero # 0 <_start>
     fcc:	0104                	addi	s1,sp,128
     fce:	01d4                	addi	a3,sp,196
     fd0:	0000                	unimp
     fd2:	fe0c                	fsw	fa1,56(a2)
     fd4:	b1000007          	0xb1000007
     fd8:	0002                	c.slli64	zero
     fda:	b000                	fsd	fs0,32(s0)
     fdc:	68000007          	0x68000007
     fe0:	0000                	unimp
     fe2:	9e00                	0x9e00
     fe4:	0006                	c.slli	zero,0x1
     fe6:	0200                	addi	s0,sp,256
     fe8:	0601                	addi	a2,a2,0
     fea:	000002f3          	0x2f3
     fee:	0102                	c.slli64	sp
     ff0:	f108                	fsw	fa0,32(a0)
     ff2:	0002                	c.slli64	zero
     ff4:	0200                	addi	s0,sp,256
     ff6:	0502                	c.slli64	a0
     ff8:	030d                	addi	t1,t1,3
     ffa:	0000                	unimp
     ffc:	0202                	c.slli64	tp
     ffe:	00021c07          	0x21c07
    1002:	0200                	addi	s0,sp,256
    1004:	0504                	addi	s1,sp,640
    1006:	00a1                	addi	ra,ra,8
    1008:	0000                	unimp
    100a:	00056d03          	0x56d03
    100e:	0200                	addi	s0,sp,256
    1010:	0054194f          	fnmadd.s	fs2,fs0,ft5,ft0,rtz
    1014:	0000                	unimp
    1016:	0402                	c.slli64	s0
    1018:	00005007          	0x5007
    101c:	0200                	addi	s0,sp,256
    101e:	0508                	addi	a0,sp,640
    1020:	009c                	addi	a5,sp,64
    1022:	0000                	unimp
    1024:	0802                	c.slli64	a6
    1026:	00004b07          	flq	fs6,0(zero) # 0 <_start>
    102a:	0400                	addi	s0,sp,512
    102c:	0504                	addi	s1,sp,640
    102e:	6e69                	lui	t3,0x1a
    1030:	0074                	addi	a3,sp,12
    1032:	00069f03          	lh	t5,0(a3)
    1036:	0200                	addi	s0,sp,256
    1038:	1ae8                	addi	a0,sp,380
    103a:	007c                	addi	a5,sp,12
    103c:	0000                	unimp
    103e:	0402                	c.slli64	s0
    1040:	00005507          	0x5507
    1044:	0300                	addi	s0,sp,384
    1046:	0000056f          	jal	a0,1046 <_etext+0x82e>
    104a:	48143003          	0x48143003
    104e:	0000                	unimp
    1050:	0300                	addi	s0,sp,384
    1052:	06a1                	addi	a3,a3,8
    1054:	0000                	unimp
    1056:	70155203          	lhu	tp,1793(a0) # 4701 <_etext+0x3ee9>
    105a:	0000                	unimp
    105c:	0300                	addi	s0,sp,384
    105e:	05cc                	addi	a1,sp,708
    1060:	0000                	unimp
    1062:	0d04                	addi	s1,sp,656
    1064:	a710                	fsd	fa2,8(a4)
    1066:	0000                	unimp
    1068:	0500                	addi	s0,sp,640
    106a:	ad04                	fsd	fs1,24(a0)
    106c:	0000                	unimp
    106e:	0600                	addi	s0,sp,768
    1070:	00bd                	addi	ra,ra,15
    1072:	0000                	unimp
    1074:	00008f07          	0x8f07
    1078:	0700                	addi	s0,sp,896
    107a:	0000008f          	0x8f
    107e:	0800                	addi	s0,sp,16
    1080:	0000009b          	0x9b
    1084:	00cd                	addi	ra,ra,19
    1086:	0000                	unimp
    1088:	7c09                	lui	s8,0xfffe2
    108a:	0000                	unimp
    108c:	0000                	unimp
    108e:	0a00                	addi	s0,sp,272
    1090:	06ca                	slli	a3,a3,0x12
    1092:	0000                	unimp
    1094:	0e04                	addi	s1,sp,784
    1096:	bd15                	j	eca <_etext+0x6b2>
    1098:	0000                	unimp
    109a:	0a00                	addi	s0,sp,272
    109c:	0619                	addi	a2,a2,6
    109e:	0000                	unimp
    10a0:	0f04                	addi	s1,sp,912
    10a2:	bd15                	j	ed6 <_etext+0x6be>
    10a4:	0000                	unimp
    10a6:	0300                	addi	s0,sp,384
    10a8:	000006ab          	0x6ab
    10ac:	3605                	jal	bcc <_etext+0x3b4>
    10ae:	f110                	fsw	fa2,32(a0)
    10b0:	0000                	unimp
    10b2:	0500                	addi	s0,sp,640
    10b4:	f704                	fsw	fs1,40(a4)
    10b6:	0000                	unimp
    10b8:	0600                	addi	s0,sp,768
    10ba:	0102                	c.slli64	sp
    10bc:	0000                	unimp
    10be:	00008307          	0x8307
    10c2:	0000                	unimp
    10c4:	e508                	fsw	fa0,8(a0)
    10c6:	0000                	unimp
    10c8:	1200                	addi	s0,sp,288
    10ca:	0001                	nop
    10cc:	0900                	addi	s0,sp,144
    10ce:	007c                	addi	a5,sp,12
    10d0:	0000                	unimp
    10d2:	c20a0013          	addi	zero,s4,-992 # 3402 <_etext+0x2bea>
    10d6:	0005                	c.nop	1
    10d8:	0500                	addi	s0,sp,640
    10da:	01021437          	lui	s0,0x1021
    10de:	0000                	unimp
    10e0:	00064d0b          	0x64d0b
    10e4:	0100                	addi	s0,sp,128
    10e6:	060a                	slli	a2,a2,0x2
    10e8:	07ec                	addi	a1,sp,972
    10ea:	0000                	unimp
    10ec:	002c                	addi	a1,sp,8
    10ee:	0000                	unimp
    10f0:	9c01                	0x9c01
    10f2:	00000143          	fmadd.s	ft2,ft0,ft0,ft0,rne
    10f6:	af0c                	fsd	fa1,24(a4)
    10f8:	0004                	0x4
    10fa:	0100                	addi	s0,sp,128
    10fc:	020e                	slli	tp,tp,0x3
    10fe:	0069                	c.nop	26
    1100:	0000                	unimp
    1102:	000d                	c.nop	3
    1104:	0e00                	addi	s0,sp,784
    1106:	07f4                	addi	a3,sp,972
    1108:	0000                	unimp
    110a:	0301                	addi	t1,t1,0
    110c:	b00d                	j	92e <_etext+0x116>
    110e:	3c000007          	0x3c000007
    1112:	0000                	unimp
    1114:	0100                	addi	s0,sp,128
    1116:	009c                	addi	a5,sp,64

Disassembly of section .debug_abbrev:

00000000 <.debug_abbrev>:
   0:	1101                	addi	sp,sp,-32
   2:	2501                	jal	602 <plic_init+0xaa>
   4:	130e                	slli	t1,t1,0x23
   6:	1b0e030b          	0x1b0e030b
   a:	110e                	slli	sp,sp,0x23
   c:	1201                	addi	tp,tp,-32
   e:	1006                	c.slli	zero,0x21
  10:	02000017          	auipc	zero,0x2000
  14:	0024                	addi	s1,sp,8
  16:	0b3e0b0b          	0xb3e0b0b
  1a:	00000e03          	lb	t3,0(zero) # 0 <_start>
  1e:	0b002403          	lw	s0,176(zero) # b0 <_stext+0x10>
  22:	030b3e0b          	0x30b3e0b
  26:	0008                	0x8
  28:	0400                	addi	s0,sp,512
  2a:	0016                	c.slli	zero,0x5
  2c:	0b3a0e03          	lb	t3,179(s4)
  30:	0b390b3b          	0xb390b3b
  34:	1349                	addi	t1,t1,-14
  36:	0000                	unimp
  38:	1605                	addi	a2,a2,-31
  3a:	0300                	addi	s0,sp,384
  3c:	3a0e                	fld	fs4,224(sp)
  3e:	39053b0b          	0x39053b0b
  42:	0013490b          	0x13490b
  46:	0600                	addi	s0,sp,768
  48:	0b0b0117          	auipc	sp,0xb0b0
  4c:	0b3a                	slli	s6,s6,0xe
  4e:	0b390b3b          	0xb390b3b
  52:	1301                	addi	t1,t1,-32
  54:	0000                	unimp
  56:	03000d07          	0x3000d07
  5a:	3a0e                	fld	fs4,224(sp)
  5c:	390b3b0b          	0x390b3b0b
  60:	0013490b          	0x13490b
  64:	0800                	addi	s0,sp,16
  66:	0101                	addi	sp,sp,0
  68:	1349                	addi	t1,t1,-14
  6a:	1301                	addi	t1,t1,-32
  6c:	0000                	unimp
  6e:	2109                	jal	470 <interrupt_disable+0x54>
  70:	4900                	lw	s0,16(a0)
  72:	000b2f13          	slti	t5,s6,0
  76:	0a00                	addi	s0,sp,272
  78:	0b0b0113          	addi	sp,s6,176 # fffe00b0 <__stack_top+0xeffdf0b0>
  7c:	0b3a                	slli	s6,s6,0xe
  7e:	0b390b3b          	0xb390b3b
  82:	1301                	addi	t1,t1,-32
  84:	0000                	unimp
  86:	03000d0b          	0x3000d0b
  8a:	3a0e                	fld	fs4,224(sp)
  8c:	390b3b0b          	0x390b3b0b
  90:	3813490b          	0x3813490b
  94:	0c00000b          	0xc00000b
  98:	0b0b000f          	0xb0b000f
  9c:	0000                	unimp
  9e:	130d                	addi	t1,t1,-29
  a0:	0301                	addi	t1,t1,0
  a2:	0b0e                	slli	s6,s6,0x3
  a4:	3b0b3a0b          	0x3b0b3a0b
  a8:	010b390b          	0x10b390b
  ac:	0e000013          	li	zero,224
  b0:	000d                	c.nop	3
  b2:	0b3a0803          	lb	a6,179(s4)
  b6:	0b390b3b          	0xb390b3b
  ba:	1349                	addi	t1,t1,-14
  bc:	0b38                	addi	a4,sp,408
  be:	0000                	unimp
  c0:	0b000f0f          	0xb000f0f
  c4:	0013490b          	0x13490b
  c8:	1000                	addi	s0,sp,32
  ca:	0e030113          	addi	sp,t1,224 # 80e0 <_etext+0x78c8>
  ce:	0b3a050b          	0xb3a050b
  d2:	0b390b3b          	0xb390b3b
  d6:	1301                	addi	t1,t1,-32
  d8:	0000                	unimp
  da:	0d11                	addi	s10,s10,4
  dc:	0300                	addi	s0,sp,384
  de:	3a0e                	fld	fs4,224(sp)
  e0:	390b3b0b          	0x390b3b0b
  e4:	3813490b          	0x3813490b
  e8:	0005                	c.nop	1
  ea:	1200                	addi	s0,sp,288
  ec:	0015                	c.nop	5
  ee:	00001927          	0x1927
  f2:	27011513          	0x27011513
  f6:	4919                	li	s2,6
  f8:	00130113          	addi	sp,t1,1
  fc:	1400                	addi	s0,sp,544
  fe:	0005                	c.nop	1
 100:	1349                	addi	t1,t1,-14
 102:	0000                	unimp
 104:	2615                	jal	428 <interrupt_disable+0xc>
 106:	4900                	lw	s0,16(a0)
 108:	16000013          	li	zero,352
 10c:	0e030113          	addi	sp,t1,224
 110:	0b3a050b          	0xb3a050b
 114:	0b39053b          	0xb39053b
 118:	1301                	addi	t1,t1,-32
 11a:	0000                	unimp
 11c:	03000d17          	auipc	s10,0x3000
 120:	3a0e                	fld	fs4,224(sp)
 122:	39053b0b          	0x39053b0b
 126:	3813490b          	0x3813490b
 12a:	1800000b          	0x1800000b
 12e:	000d                	c.nop	3
 130:	0b3a0e03          	lb	t3,179(s4)
 134:	0b39053b          	0xb39053b
 138:	1349                	addi	t1,t1,-14
 13a:	0538                	addi	a4,sp,648
 13c:	0000                	unimp
 13e:	1319                	addi	t1,t1,-26
 140:	0301                	addi	t1,t1,0
 142:	0b0e                	slli	s6,s6,0x3
 144:	3b0b3a0b          	0x3b0b3a0b
 148:	3905                	jal	fffffd78 <__stack_top+0xefffed78>
 14a:	0013010b          	0x13010b
 14e:	1a00                	addi	s0,sp,304
 150:	0b0b0113          	addi	sp,s6,176
 154:	0b3a                	slli	s6,s6,0xe
 156:	0b39053b          	0xb39053b
 15a:	1301                	addi	t1,t1,-32
 15c:	0000                	unimp
 15e:	0b01171b          	0xb01171b
 162:	3b0b3a0b          	0x3b0b3a0b
 166:	3905                	jal	fffffd96 <__stack_top+0xefffed96>
 168:	0013010b          	0x13010b
 16c:	1c00                	addi	s0,sp,560
 16e:	000d                	c.nop	3
 170:	0b3a0e03          	lb	t3,179(s4)
 174:	0b39053b          	0xb39053b
 178:	1349                	addi	t1,t1,-14
 17a:	0000                	unimp
 17c:	131d                	addi	t1,t1,-25
 17e:	0300                	addi	s0,sp,384
 180:	3c0e                	fld	fs8,224(sp)
 182:	0019                	c.nop	6
 184:	1e00                	addi	s0,sp,816
 186:	0115                	addi	sp,sp,5
 188:	13011927          	0x13011927
 18c:	0000                	unimp
 18e:	341f 0300 3a0e      	0x3a0e0300341f
 194:	39053b0b          	0x39053b0b
 198:	3f13490b          	0x3f13490b
 19c:	3c19                	jal	fffffbb2 <__stack_top+0xefffebb2>
 19e:	0019                	c.nop	6
 1a0:	2000                	fld	fs0,0(s0)
 1a2:	012e                	slli	sp,sp,0xb
 1a4:	0e03193f 0b3b0b3a 	0xb3b0b3a0e03193f
 1ac:	0b39                	addi	s6,s6,14
 1ae:	1349                	addi	t1,t1,-14
 1b0:	0111                	addi	sp,sp,4
 1b2:	0612                	slli	a2,a2,0x4
 1b4:	1840                	addi	s0,sp,52
 1b6:	00194297          	auipc	t0,0x194
 1ba:	2100                	fld	fs0,0(a0)
 1bc:	0034                	addi	a3,sp,8
 1be:	0b3a0803          	lb	a6,179(s4)
 1c2:	0b390b3b          	0xb390b3b
 1c6:	1349                	addi	t1,t1,-14
 1c8:	1802                	slli	a6,a6,0x20
 1ca:	0000                	unimp
 1cc:	0100                	addi	s0,sp,128
 1ce:	0111                	addi	sp,sp,4
 1d0:	0e25                	addi	t3,t3,9
 1d2:	0e030b13          	addi	s6,t1,224
 1d6:	01110e1b          	0x1110e1b
 1da:	0612                	slli	a2,a2,0x4
 1dc:	1710                	addi	a2,sp,928
 1de:	0000                	unimp
 1e0:	2402                	fld	fs0,0(sp)
 1e2:	0b00                	addi	s0,sp,400
 1e4:	030b3e0b          	0x30b3e0b
 1e8:	000e                	c.slli	zero,0x3
 1ea:	0300                	addi	s0,sp,384
 1ec:	0016                	c.slli	zero,0x5
 1ee:	0b3a0e03          	lb	t3,179(s4)
 1f2:	0b390b3b          	0xb390b3b
 1f6:	1349                	addi	t1,t1,-14
 1f8:	0000                	unimp
 1fa:	2404                	fld	fs1,8(s0)
 1fc:	0b00                	addi	s0,sp,400
 1fe:	030b3e0b          	0x30b3e0b
 202:	0008                	0x8
 204:	0500                	addi	s0,sp,640
 206:	0b0b000f          	0xb0b000f
 20a:	1349                	addi	t1,t1,-14
 20c:	0000                	unimp
 20e:	1506                	slli	a0,a0,0x21
 210:	2701                	jal	910 <_etext+0xf8>
 212:	0119                	addi	sp,sp,6
 214:	07000013          	li	zero,112
 218:	0005                	c.nop	1
 21a:	1349                	addi	t1,t1,-14
 21c:	0000                	unimp
 21e:	0108                	addi	a0,sp,128
 220:	4901                	li	s2,0
 222:	00130113          	addi	sp,t1,1
 226:	0900                	addi	s0,sp,144
 228:	0021                	c.nop	8
 22a:	1349                	addi	t1,t1,-14
 22c:	00000b2f          	0xb2f
 230:	340a                	fld	fs0,160(sp)
 232:	0300                	addi	s0,sp,384
 234:	3a0e                	fld	fs4,224(sp)
 236:	390b3b0b          	0x390b3b0b
 23a:	3f13490b          	0x3f13490b
 23e:	3c19                	jal	fffffc54 <__stack_top+0xefffec54>
 240:	0019                	c.nop	6
 242:	0b00                	addi	s0,sp,400
 244:	0104                	addi	s1,sp,128
 246:	0b3e                	slli	s6,s6,0xf
 248:	13490b0b          	0x13490b0b
 24c:	0b3a                	slli	s6,s6,0xe
 24e:	0b390b3b          	0xb390b3b
 252:	1301                	addi	t1,t1,-32
 254:	0000                	unimp
 256:	280c                	fld	fa1,16(s0)
 258:	0300                	addi	s0,sp,384
 25a:	1c0e                	slli	s8,s8,0x23
 25c:	0d00000b          	0xd00000b
 260:	0b0b0113          	addi	sp,s6,176
 264:	0b3a                	slli	s6,s6,0xe
 266:	0b390b3b          	0xb390b3b
 26a:	1301                	addi	t1,t1,-32
 26c:	0000                	unimp
 26e:	0d0e                	slli	s10,s10,0x3
 270:	0300                	addi	s0,sp,384
 272:	3a08                	fld	fa0,48(a2)
 274:	390b3b0b          	0x390b3b0b
 278:	3813490b          	0x3813490b
 27c:	0f00000b          	0xf00000b
 280:	000d                	c.nop	3
 282:	0b3a0e03          	lb	t3,179(s4)
 286:	0b390b3b          	0xb390b3b
 28a:	1349                	addi	t1,t1,-14
 28c:	0b38                	addi	a4,sp,408
 28e:	0000                	unimp
 290:	3410                	fld	fa2,40(s0)
 292:	4700                	lw	s0,8(a4)
 294:	3b0b3a13          	sltiu	s4,s6,944
 298:	020b390b          	0x20b390b
 29c:	0018                	0x18
 29e:	1100                	addi	s0,sp,160
 2a0:	0034                	addi	a3,sp,8
 2a2:	0b3a0e03          	lb	t3,179(s4)
 2a6:	0b390b3b          	0xb390b3b
 2aa:	1349                	addi	t1,t1,-14
 2ac:	1802193f 2e120000 	0x2e1200001802193f
 2b4:	3f01                	jal	1c4 <main+0x4>
 2b6:	0319                	addi	t1,t1,6
 2b8:	3a0e                	fld	fs4,224(sp)
 2ba:	390b3b0b          	0x390b3b0b
 2be:	1119270b          	0x1119270b
 2c2:	1201                	addi	tp,tp,-32
 2c4:	4006                	0x4006
 2c6:	9618                	0x9618
 2c8:	1942                	slli	s2,s2,0x30
 2ca:	1301                	addi	t1,t1,-32
 2cc:	0000                	unimp
 2ce:	03000513          	li	a0,48
 2d2:	3a0e                	fld	fs4,224(sp)
 2d4:	390b3b0b          	0x390b3b0b
 2d8:	0213490b          	0x213490b
 2dc:	0018                	0x18
 2de:	1400                	addi	s0,sp,544
 2e0:	0034                	addi	a3,sp,8
 2e2:	0b3a0e03          	lb	t3,179(s4)
 2e6:	0b390b3b          	0xb390b3b
 2ea:	1349                	addi	t1,t1,-14
 2ec:	1802                	slli	a6,a6,0x20
 2ee:	0000                	unimp
 2f0:	2e15                	jal	624 <plic_init+0xcc>
 2f2:	3f01                	jal	202 <read_word+0x2>
 2f4:	0319                	addi	t1,t1,6
 2f6:	3a0e                	fld	fs4,224(sp)
 2f8:	390b3b0b          	0x390b3b0b
 2fc:	1119270b          	0x1119270b
 300:	1201                	addi	tp,tp,-32
 302:	4006                	0x4006
 304:	9718                	0x9718
 306:	1942                	slli	s2,s2,0x30
 308:	1301                	addi	t1,t1,-32
 30a:	0000                	unimp
 30c:	0516                	slli	a0,a0,0x5
 30e:	0300                	addi	s0,sp,384
 310:	3a08                	fld	fa0,48(a2)
 312:	390b3b0b          	0x390b3b0b
 316:	0213490b          	0x213490b
 31a:	0018                	0x18
 31c:	1700                	addi	s0,sp,928
 31e:	012e                	slli	sp,sp,0xb
 320:	0e03193f 0b3b0b3a 	0xb3b0b3a0e03193f
 328:	0b39                	addi	s6,s6,14
 32a:	13491927          	0x13491927
 32e:	0111                	addi	sp,sp,4
 330:	0612                	slli	a2,a2,0x4
 332:	1840                	addi	s0,sp,52
 334:	01194297          	auipc	t0,0x1194
 338:	18000013          	li	zero,384
 33c:	012e                	slli	sp,sp,0xb
 33e:	0e03193f 0b3b0b3a 	0xb3b0b3a0e03193f
 346:	0b39                	addi	s6,s6,14
 348:	13491927          	0x13491927
 34c:	0111                	addi	sp,sp,4
 34e:	0612                	slli	a2,a2,0x4
 350:	1840                	addi	s0,sp,52
 352:	00194297          	auipc	t0,0x194
 356:	0000                	unimp
 358:	1101                	addi	sp,sp,-32
 35a:	2501                	jal	95a <_etext+0x142>
 35c:	130e                	slli	t1,t1,0x23
 35e:	1b0e030b          	0x1b0e030b
 362:	110e                	slli	sp,sp,0x23
 364:	1201                	addi	tp,tp,-32
 366:	1006                	c.slli	zero,0x21
 368:	02000017          	auipc	zero,0x2000
 36c:	0024                	addi	s1,sp,8
 36e:	0b3e0b0b          	0xb3e0b0b
 372:	00000e03          	lb	t3,0(zero) # 0 <_start>
 376:	03001603          	lh	a2,48(zero) # 30 <_start+0x30>
 37a:	3a0e                	fld	fs4,224(sp)
 37c:	390b3b0b          	0x390b3b0b
 380:	0013490b          	0x13490b
 384:	0400                	addi	s0,sp,512
 386:	0024                	addi	s1,sp,8
 388:	0b3e0b0b          	0xb3e0b0b
 38c:	00000803          	lb	a6,0(zero) # 0 <_start>
 390:	0f05                	addi	t5,t5,1
 392:	0b00                	addi	s0,sp,400
 394:	0013490b          	0x13490b
 398:	0600                	addi	s0,sp,768
 39a:	0115                	addi	sp,sp,5
 39c:	13011927          	0x13011927
 3a0:	0000                	unimp
 3a2:	49000507          	0x49000507
 3a6:	08000013          	li	zero,128
 3aa:	0101                	addi	sp,sp,0
 3ac:	1349                	addi	t1,t1,-14
 3ae:	1301                	addi	t1,t1,-32
 3b0:	0000                	unimp
 3b2:	2109                	jal	7b4 <trap_init+0x4>
 3b4:	4900                	lw	s0,16(a0)
 3b6:	000b2f13          	slti	t5,s6,0
 3ba:	0a00                	addi	s0,sp,272
 3bc:	0034                	addi	a3,sp,8
 3be:	0b3a0e03          	lb	t3,179(s4)
 3c2:	0b390b3b          	0xb390b3b
 3c6:	1349                	addi	t1,t1,-14
 3c8:	193c193f 340b0000 	0x340b0000193c193f
 3d0:	4700                	lw	s0,8(a4)
 3d2:	3b0b3a13          	sltiu	s4,s6,944
 3d6:	020b390b          	0x20b390b
 3da:	0018                	0x18
 3dc:	0c00                	addi	s0,sp,528
 3de:	012e                	slli	sp,sp,0xb
 3e0:	0e03193f 0b3b0b3a 	0xb3b0b3a0e03193f
 3e8:	0b39                	addi	s6,s6,14
 3ea:	13491927          	0x13491927
 3ee:	0111                	addi	sp,sp,4
 3f0:	0612                	slli	a2,a2,0x4
 3f2:	1840                	addi	s0,sp,52
 3f4:	4296                	lw	t0,68(sp)
 3f6:	0119                	addi	sp,sp,6
 3f8:	0d000013          	li	zero,208
 3fc:	0005                	c.nop	1
 3fe:	0b3a0e03          	lb	t3,179(s4)
 402:	0b390b3b          	0xb390b3b
 406:	1349                	addi	t1,t1,-14
 408:	1802                	slli	a6,a6,0x20
 40a:	0000                	unimp
 40c:	050e                	slli	a0,a0,0x3
 40e:	0300                	addi	s0,sp,384
 410:	3a08                	fld	fa0,48(a2)
 412:	390b3b0b          	0x390b3b0b
 416:	0213490b          	0x213490b
 41a:	0018                	0x18
 41c:	0f00                	addi	s0,sp,912
 41e:	0034                	addi	a3,sp,8
 420:	0b3a0e03          	lb	t3,179(s4)
 424:	0b390b3b          	0xb390b3b
 428:	1349                	addi	t1,t1,-14
 42a:	1802                	slli	a6,a6,0x20
 42c:	0000                	unimp
 42e:	2e10                	fld	fa2,24(a2)
 430:	3f01                	jal	340 <mach_plic_handler+0x10>
 432:	0319                	addi	t1,t1,6
 434:	3a0e                	fld	fs4,224(sp)
 436:	390b3b0b          	0x390b3b0b
 43a:	1119270b          	0x1119270b
 43e:	1201                	addi	tp,tp,-32
 440:	4006                	0x4006
 442:	9718                	0x9718
 444:	1942                	slli	s2,s2,0x30
 446:	1301                	addi	t1,t1,-32
 448:	0000                	unimp
 44a:	2e11                	jal	75e <handle_trap+0x5a>
 44c:	3f01                	jal	35c <mach_plic_handler+0x2c>
 44e:	0319                	addi	t1,t1,6
 450:	3a0e                	fld	fs4,224(sp)
 452:	390b3b0b          	0x390b3b0b
 456:	4919270b          	0x4919270b
 45a:	12011113          	0x12011113
 45e:	4006                	0x4006
 460:	9718                	0x9718
 462:	1942                	slli	s2,s2,0x30
 464:	0000                	unimp
 466:	0100                	addi	s0,sp,128
 468:	0111                	addi	sp,sp,4
 46a:	0e25                	addi	t3,t3,9
 46c:	0e030b13          	addi	s6,t1,224
 470:	01110e1b          	0x1110e1b
 474:	0612                	slli	a2,a2,0x4
 476:	1710                	addi	a2,sp,928
 478:	0000                	unimp
 47a:	2402                	fld	fs0,0(sp)
 47c:	0b00                	addi	s0,sp,400
 47e:	030b3e0b          	0x30b3e0b
 482:	000e                	c.slli	zero,0x3
 484:	0300                	addi	s0,sp,384
 486:	0016                	c.slli	zero,0x5
 488:	0b3a0e03          	lb	t3,179(s4)
 48c:	0b390b3b          	0xb390b3b
 490:	1349                	addi	t1,t1,-14
 492:	0000                	unimp
 494:	2404                	fld	fs1,8(s0)
 496:	0b00                	addi	s0,sp,400
 498:	030b3e0b          	0x30b3e0b
 49c:	0008                	0x8
 49e:	0500                	addi	s0,sp,640
 4a0:	0b0b000f          	0xb0b000f
 4a4:	1349                	addi	t1,t1,-14
 4a6:	0000                	unimp
 4a8:	1506                	slli	a0,a0,0x21
 4aa:	2701                	jal	baa <_etext+0x392>
 4ac:	0119                	addi	sp,sp,6
 4ae:	07000013          	li	zero,112
 4b2:	0005                	c.nop	1
 4b4:	1349                	addi	t1,t1,-14
 4b6:	0000                	unimp
 4b8:	0108                	addi	a0,sp,128
 4ba:	4901                	li	s2,0
 4bc:	00130113          	addi	sp,t1,1
 4c0:	0900                	addi	s0,sp,144
 4c2:	0021                	c.nop	8
 4c4:	1349                	addi	t1,t1,-14
 4c6:	00000b2f          	0xb2f
 4ca:	340a                	fld	fs0,160(sp)
 4cc:	0300                	addi	s0,sp,384
 4ce:	3a0e                	fld	fs4,224(sp)
 4d0:	390b3b0b          	0x390b3b0b
 4d4:	3f13490b          	0x3f13490b
 4d8:	3c19                	jal	fffffeee <__stack_top+0xefffeeee>
 4da:	0019                	c.nop	6
 4dc:	0b00                	addi	s0,sp,400
 4de:	012e                	slli	sp,sp,0xb
 4e0:	0e03193f 0b3b0b3a 	0xb3b0b3a0e03193f
 4e8:	0b39                	addi	s6,s6,14
 4ea:	01111927          	0x1111927
 4ee:	0612                	slli	a2,a2,0x4
 4f0:	1840                	addi	s0,sp,52
 4f2:	4296                	lw	t0,68(sp)
 4f4:	0119                	addi	sp,sp,6
 4f6:	0c000013          	li	zero,192
 4fa:	012e                	slli	sp,sp,0xb
 4fc:	0e03193f 0b3b0b3a 	0xb3b0b3a0e03193f
 504:	0b39                	addi	s6,s6,14
 506:	1349                	addi	t1,t1,-14
 508:	193c                	addi	a5,sp,184
 50a:	0000                	unimp
 50c:	180d                	addi	a6,a6,-29
 50e:	0000                	unimp
 510:	0e00                	addi	s0,sp,784
 512:	002e                	c.slli	zero,0xb
 514:	0b3a0e03          	lb	t3,179(s4)
 518:	0b390b3b          	0xb390b3b
 51c:	01111927          	0x1111927
 520:	0612                	slli	a2,a2,0x4
 522:	1840                	addi	s0,sp,52
 524:	00194297          	auipc	t0,0x194
 528:	0000                	unimp

Disassembly of section .debug_aranges:

00000000 <.debug_aranges>:
   0:	001c                	0x1c
   2:	0000                	unimp
   4:	0002                	c.slli64	zero
   6:	0000                	unimp
   8:	0000                	unimp
   a:	0004                	0x4
   c:	0000                	unimp
   e:	0000                	unimp
  10:	01c0                	addi	s0,sp,196
  12:	0000                	unimp
  14:	0040                	addi	s0,sp,4
  16:	0000                	unimp
  18:	0000                	unimp
  1a:	0000                	unimp
  1c:	0000                	unimp
  1e:	0000                	unimp
  20:	001c                	0x1c
  22:	0000                	unimp
  24:	0002                	c.slli64	zero
  26:	094d                	addi	s2,s2,19
  28:	0000                	unimp
  2a:	0004                	0x4
  2c:	0000                	unimp
  2e:	0000                	unimp
  30:	0200                	addi	s0,sp,256
  32:	0000                	unimp
  34:	04b4                	addi	a3,sp,584
  36:	0000                	unimp
  38:	0000                	unimp
  3a:	0000                	unimp
  3c:	0000                	unimp
  3e:	0000                	unimp
  40:	001c                	0x1c
  42:	0000                	unimp
  44:	0002                	c.slli64	zero
  46:	0dff                	0xdff
  48:	0000                	unimp
  4a:	0004                	0x4
  4c:	0000                	unimp
  4e:	0000                	unimp
  50:	06b4                	addi	a3,sp,840
  52:	0000                	unimp
  54:	00fc                	addi	a5,sp,76
  56:	0000                	unimp
  58:	0000                	unimp
  5a:	0000                	unimp
  5c:	0000                	unimp
  5e:	0000                	unimp
  60:	001c                	0x1c
  62:	0000                	unimp
  64:	0002                	c.slli64	zero
  66:	0fc2                	slli	t6,t6,0x10
  68:	0000                	unimp
  6a:	0004                	0x4
  6c:	0000                	unimp
  6e:	0000                	unimp
  70:	07b0                	addi	a2,sp,968
  72:	0000                	unimp
  74:	0068                	addi	a0,sp,12
  76:	0000                	unimp
  78:	0000                	unimp
  7a:	0000                	unimp
  7c:	0000                	unimp
  7e:	0000                	unimp

Disassembly of section .debug_line:

00000000 <.debug_line>:
   0:	010d                	addi	sp,sp,3
   2:	0000                	unimp
   4:	00d90003          	lb	zero,13(s2) # 100d <_etext+0x7f5>
   8:	0000                	unimp
   a:	0101                	addi	sp,sp,0
   c:	000d0efb          	0xd0efb
  10:	0101                	addi	sp,sp,0
  12:	0101                	addi	sp,sp,0
  14:	0000                	unimp
  16:	0100                	addi	s0,sp,128
  18:	0000                	unimp
  1a:	2f01                	jal	72a <handle_trap+0x26>
  1c:	6f68                	flw	fa0,92(a4)
  1e:	656d                	lui	a0,0x1b
  20:	72656d2f          	0x72656d2f
  24:	2f6c                	fld	fa1,216(a4)
  26:	68746967          	0x68746967
  2a:	6275                	lui	tp,0x1d
  2c:	725f 7065 736f      	0x736f7065725f
  32:	617a612f          	0x617a612f
  36:	6964                	flw	fs1,84(a0)
  38:	7365742f          	0x7365742f
  3c:	7374                	flw	fa3,100(a4)
  3e:	6d73612f          	0x6d73612f
  42:	2f00                	fld	fs0,24(a4)
  44:	6f74                	flw	fa3,92(a4)
  46:	2f736c6f          	jal	s8,36b3c <_etext+0x36324>
  4a:	6972                	flw	fs2,28(sp)
  4c:	2f766373          	csrrsi	t1,0x2f7,12
  50:	6972                	flw	fs2,28(sp)
  52:	33766373          	csrrsi	t1,mhpmevent23,12
  56:	2d32                	fld	fs10,264(sp)
  58:	6e75                	lui	t3,0x1d
  5a:	776f6e6b          	0x776f6e6b
  5e:	2d6e                	fld	fs10,216(sp)
  60:	6c65                	lui	s8,0x19
  62:	2f66                	fld	ft10,88(sp)
  64:	2d737973          	csrrci	s2,0x2d7,6
  68:	6e69                	lui	t3,0x1a
  6a:	64756c63          	bltu	a0,t2,6c2 <extract_ie_code+0xe>
  6e:	2f65                	jal	826 <_etext+0xe>
  70:	00737973          	csrrci	s2,0x7,6
  74:	6f6f742f          	0x6f6f742f
  78:	736c                	flw	fa1,100(a4)
  7a:	7369722f          	0x7369722f
  7e:	6c2f7663          	bgeu	t5,sp,74a <handle_trap+0x46>
  82:	6269                	lui	tp,0x1a
  84:	6363672f          	0x6363672f
  88:	7369722f          	0x7369722f
  8c:	32337663          	bgeu	t1,gp,3b8 <interrupt_enable+0x18>
  90:	752d                	lui	a0,0xfffeb
  92:	6b6e                	flw	fs6,216(sp)
  94:	6f6e                	flw	ft10,216(sp)
  96:	652d6e77          	0x652d6e77
  9a:	666c                	flw	fa1,76(a2)
  9c:	322e392f          	0x322e392f
  a0:	302e                	fld	ft0,232(sp)
  a2:	636e692f          	0x636e692f
  a6:	756c                	flw	fa1,108(a0)
  a8:	6564                	flw	fs1,76(a0)
  aa:	0000                	unimp
  ac:	6461                	lui	s0,0x18
  ae:	2e64                	fld	fs1,216(a2)
  b0:	00010063          	beqz	sp,b0 <_stext+0x10>
  b4:	6c00                	flw	fs0,24(s0)
  b6:	2e6b636f          	jal	t1,b639c <_etext+0xb5b84>
  ba:	0068                	addi	a0,sp,12
  bc:	0002                	c.slli64	zero
  be:	5f00                	lw	s0,56(a4)
  c0:	7974                	flw	fa3,116(a0)
  c2:	6570                	flw	fa2,76(a0)
  c4:	00682e73          	csrrs	t3,0x6,a6
  c8:	0002                	c.slli64	zero
  ca:	7300                	flw	fs0,32(a4)
  cc:	6474                	flw	fa3,76(s0)
  ce:	6564                	flw	fs1,76(a0)
  d0:	2e66                	fld	ft8,88(sp)
  d2:	0068                	addi	a0,sp,12
  d4:	72000003          	lb	zero,1824(zero) # 720 <handle_trap+0x1c>
  d8:	6565                	lui	a0,0x19
  da:	746e                	flw	fs0,248(sp)
  dc:	682e                	flw	fa6,200(sp)
  de:	0200                	addi	s0,sp,256
  e0:	0000                	unimp
  e2:	0500                	addi	s0,sp,640
  e4:	0205000b          	0x205000b
  e8:	01c0                	addi	s0,sp,196
  ea:	0000                	unimp
  ec:	0514                	addi	a3,sp,640
  ee:	0309                	addi	t1,t1,2
  f0:	0901                	addi	s2,s2,0
  f2:	000c                	0xc
  f4:	0301                	addi	t1,t1,0
  f6:	0901                	addi	s2,s2,0
  f8:	0008                	0x8
  fa:	0501                	addi	a0,a0,0
  fc:	09020307          	0x9020307
 100:	0008                	0x8
 102:	0501                	addi	a0,a0,0
 104:	0301                	addi	t1,t1,0
 106:	0901                	addi	s2,s2,0
 108:	0014                	0x14
 10a:	0901                	addi	s2,s2,0
 10c:	0010                	0x10
 10e:	0100                	addi	s0,sp,128
 110:	f601                	bnez	a2,18 <_start+0x18>
 112:	03000003          	lb	zero,48(zero) # 30 <_start+0x30>
 116:	f600                	fsw	fs0,40(a2)
 118:	0000                	unimp
 11a:	0100                	addi	s0,sp,128
 11c:	fb01                	bnez	a4,2c <_start+0x2c>
 11e:	0d0e                	slli	s10,s10,0x3
 120:	0100                	addi	s0,sp,128
 122:	0101                	addi	sp,sp,0
 124:	0001                	nop
 126:	0000                	unimp
 128:	0001                	nop
 12a:	0100                	addi	s0,sp,128
 12c:	6d6f682f          	0x6d6f682f
 130:	2f65                	jal	8e8 <_etext+0xd0>
 132:	656d                	lui	a0,0x1b
 134:	6c72                	flw	fs8,28(sp)
 136:	7469672f          	0x7469672f
 13a:	7568                	flw	fa0,108(a0)
 13c:	5f62                	lw	t5,56(sp)
 13e:	6572                	flw	fa0,28(sp)
 140:	6f70                	flw	fa2,92(a4)
 142:	7a612f73          	csrrs	t5,0x7a6,sp
 146:	6461                	lui	s0,0x18
 148:	2f69                	jal	8e2 <_etext+0xca>
 14a:	6574                	flw	fa3,76(a0)
 14c:	2f737473          	csrrci	s0,0x2f7,6
 150:	7361                	lui	t1,0xffff8
 152:	2f6d                	jal	90c <_etext+0xf4>
 154:	6d6d6f63          	bltu	s10,s6,832 <_etext+0x1a>
 158:	2f006e6f          	jal	t3,6448 <_etext+0x5c30>
 15c:	6f74                	flw	fa3,92(a4)
 15e:	2f736c6f          	jal	s8,36c54 <_etext+0x3643c>
 162:	6972                	flw	fs2,28(sp)
 164:	2f766373          	csrrsi	t1,0x2f7,12
 168:	6972                	flw	fs2,28(sp)
 16a:	33766373          	csrrsi	t1,mhpmevent23,12
 16e:	2d32                	fld	fs10,264(sp)
 170:	6e75                	lui	t3,0x1d
 172:	776f6e6b          	0x776f6e6b
 176:	2d6e                	fld	fs10,216(sp)
 178:	6c65                	lui	s8,0x19
 17a:	2f66                	fld	ft10,88(sp)
 17c:	2d737973          	csrrci	s2,0x2d7,6
 180:	6e69                	lui	t3,0x1a
 182:	64756c63          	bltu	a0,t2,7da <trap_init+0x2a>
 186:	2f65                	jal	93e <_etext+0x126>
 188:	616d                	addi	sp,sp,240
 18a:	6e696863          	bltu	s2,t1,87a <_etext+0x62>
 18e:	0065                	c.nop	25
 190:	6f6f742f          	0x6f6f742f
 194:	736c                	flw	fa1,100(a4)
 196:	7369722f          	0x7369722f
 19a:	722f7663          	bgeu	t5,sp,8c6 <_etext+0xae>
 19e:	7369                	lui	t1,0xffffa
 1a0:	32337663          	bgeu	t1,gp,4cc <set_interrupt_threshold+0x10>
 1a4:	752d                	lui	a0,0xfffeb
 1a6:	6b6e                	flw	fs6,216(sp)
 1a8:	6f6e                	flw	ft10,216(sp)
 1aa:	652d6e77          	0x652d6e77
 1ae:	666c                	flw	fa1,76(a2)
 1b0:	7379732f          	0x7379732f
 1b4:	692d                	lui	s2,0xb
 1b6:	636e                	flw	ft6,216(sp)
 1b8:	756c                	flw	fa1,108(a0)
 1ba:	6564                	flw	fs1,76(a0)
 1bc:	7379732f          	0x7379732f
 1c0:	0000                	unimp
 1c2:	6c70                	flw	fa2,92(s0)
 1c4:	6369                	lui	t1,0x1a
 1c6:	645f 6972 6576      	0x65766972645f
 1cc:	2e72                	fld	ft8,280(sp)
 1ce:	00010063          	beqz	sp,1ce <main+0xe>
 1d2:	5f00                	lw	s0,56(a4)
 1d4:	6564                	flw	fs1,76(a0)
 1d6:	6166                	flw	ft2,88(sp)
 1d8:	6c75                	lui	s8,0x1d
 1da:	5f74                	lw	a3,124(a4)
 1dc:	7974                	flw	fa3,116(a0)
 1de:	6570                	flw	fa2,76(a0)
 1e0:	00682e73          	csrrs	t3,0x6,a6
 1e4:	0002                	c.slli64	zero
 1e6:	5f00                	lw	s0,56(a4)
 1e8:	69647473          	csrrci	s0,0x696,8
 1ec:	746e                	flw	fs0,248(sp)
 1ee:	682e                	flw	fa6,200(sp)
 1f0:	0300                	addi	s0,sp,384
 1f2:	0000                	unimp
 1f4:	7274                	flw	fa3,100(a2)
 1f6:	7061                	c.lui	zero,0xffff8
 1f8:	00682e73          	csrrs	t3,0x6,a6
 1fc:	0001                	nop
 1fe:	7000                	flw	fs0,32(s0)
 200:	696c                	flw	fa1,84(a0)
 202:	72645f63          	bge	s0,t1,940 <_etext+0x128>
 206:	7669                	lui	a2,0xffffa
 208:	7265                	lui	tp,0xffff9
 20a:	682e                	flw	fa6,200(sp)
 20c:	0100                	addi	s0,sp,128
 20e:	0000                	unimp
 210:	0500                	addi	s0,sp,640
 212:	0001                	nop
 214:	0205                	addi	tp,tp,1
 216:	0200                	addi	s0,sp,256
 218:	0000                	unimp
 21a:	05010a03          	lb	s4,80(sp) # b0b0098 <_etext+0xb0af880>
 21e:	0309                	addi	t1,t1,2
 220:	0901                	addi	s2,s2,0
 222:	0010                	0x10
 224:	0501                	addi	a0,a0,0
 226:	0301                	addi	t1,t1,0
 228:	0901                	addi	s2,s2,0
 22a:	0008                	0x8
 22c:	0301                	addi	t1,t1,0
 22e:	0908                	addi	a0,sp,144
 230:	0010                	0x10
 232:	0501                	addi	a0,a0,0
 234:	0308                	addi	a0,sp,384
 236:	0901                	addi	s2,s2,0
 238:	0014                	0x14
 23a:	0501                	addi	a0,a0,0
 23c:	0301                	addi	t1,t1,0
 23e:	0901                	addi	s2,s2,0
 240:	000c                	0xc
 242:	0301                	addi	t1,t1,0
 244:	00100903          	lb	s2,1(zero) # 1 <_start+0x1>
 248:	0501                	addi	a0,a0,0
 24a:	030c                	addi	a1,sp,384
 24c:	0902                	c.slli64	s2
 24e:	0010                	0x10
 250:	0501                	addi	a0,a0,0
 252:	030e                	slli	t1,t1,0x3
 254:	000c0903          	lb	s2,0(s8) # 1d000 <_etext+0x1c7e8>
 258:	0501                	addi	a0,a0,0
 25a:	032d                	addi	t1,t1,11
 25c:	0901                	addi	s2,s2,0
 25e:	000c                	0xc
 260:	0501                	addi	a0,a0,0
 262:	0326                	slli	t1,t1,0x9
 264:	0901                	addi	s2,s2,0
 266:	0018                	0x18
 268:	0501                	addi	a0,a0,0
 26a:	032c                	addi	a1,sp,392
 26c:	0900                	addi	s0,sp,144
 26e:	0014                	0x14
 270:	0501                	addi	a0,a0,0
 272:	0301                	addi	t1,t1,0
 274:	0901                	addi	s2,s2,0
 276:	0018                	0x18
 278:	0301                	addi	t1,t1,0
 27a:	00100903          	lb	s2,1(zero) # 1 <_start+0x1>
 27e:	0301                	addi	t1,t1,0
 280:	090e                	slli	s2,s2,0x3
 282:	0010                	0x10
 284:	0301                	addi	t1,t1,0
 286:	00100903          	lb	s2,1(zero) # 1 <_start+0x1>
 28a:	0501                	addi	a0,a0,0
 28c:	030c                	addi	a1,sp,384
 28e:	0901                	addi	s2,s2,0
 290:	000c                	0xc
 292:	0501                	addi	a0,a0,0
 294:	031a                	slli	t1,t1,0x6
 296:	0902                	c.slli64	s2
 298:	0004                	0x4
 29a:	0501                	addi	a0,a0,0
 29c:	0902030f          	0x902030f
 2a0:	000c                	0xc
 2a2:	0501                	addi	a0,a0,0
 2a4:	0309                	addi	t1,t1,2
 2a6:	0901                	addi	s2,s2,0
 2a8:	000c                	0xc
 2aa:	0501                	addi	a0,a0,0
 2ac:	0301                	addi	t1,t1,0
 2ae:	0901                	addi	s2,s2,0
 2b0:	0004                	0x4
 2b2:	0301                	addi	t1,t1,0
 2b4:	00100903          	lb	s2,1(zero) # 1 <_start+0x1>
 2b8:	0501                	addi	a0,a0,0
 2ba:	0311                	addi	t1,t1,4
 2bc:	00180903          	lb	s2,1(a6) # 2378f <_etext+0x22f77>
 2c0:	0501                	addi	a0,a0,0
 2c2:	032e                	slli	t1,t1,0xb
 2c4:	0902                	c.slli64	s2
 2c6:	0008                	0x8
 2c8:	0501                	addi	a0,a0,0
 2ca:	0903030b          	0x903030b
 2ce:	0018                	0x18
 2d0:	0501                	addi	a0,a0,0
 2d2:	0302                	c.slli64	t1
 2d4:	0900                	addi	s0,sp,144
 2d6:	0014                	0x14
 2d8:	0301                	addi	t1,t1,0
 2da:	0902                	c.slli64	s2
 2dc:	0008                	0x8
 2de:	0501                	addi	a0,a0,0
 2e0:	0301                	addi	t1,t1,0
 2e2:	0901                	addi	s2,s2,0
 2e4:	0008                	0x8
 2e6:	0301                	addi	t1,t1,0
 2e8:	0902                	c.slli64	s2
 2ea:	0014                	0x14
 2ec:	0501                	addi	a0,a0,0
 2ee:	030a                	slli	t1,t1,0x2
 2f0:	0902                	c.slli64	s2
 2f2:	0010                	0x10
 2f4:	0501                	addi	a0,a0,0
 2f6:	0314                	addi	a3,sp,384
 2f8:	0904                	addi	s1,sp,144
 2fa:	0004                	0x4
 2fc:	0501                	addi	a0,a0,0
 2fe:	097f0317          	auipc	t1,0x97f0
 302:	0008                	0x8
 304:	0501                	addi	a0,a0,0
 306:	0318                	addi	a4,sp,384
 308:	097f                	0x97f
 30a:	0008                	0x8
 30c:	0501                	addi	a0,a0,0
 30e:	0310                	addi	a2,sp,384
 310:	0904                	addi	s1,sp,144
 312:	0004                	0x4
 314:	0501                	addi	a0,a0,0
 316:	0334                	addi	a3,sp,392
 318:	000c0903          	lb	s2,0(s8)
 31c:	0501                	addi	a0,a0,0
 31e:	09000323          	sb	a6,134(zero) # 86 <_start+0x86>
 322:	0008                	0x8
 324:	0501                	addi	a0,a0,0
 326:	031c                	addi	a5,sp,384
 328:	0900                	addi	s0,sp,144
 32a:	0008                	0x8
 32c:	0501                	addi	a0,a0,0
 32e:	030c                	addi	a1,sp,384
 330:	0900                	addi	s0,sp,144
 332:	0018                	0x18
 334:	0501                	addi	a0,a0,0
 336:	0325                	addi	t1,t1,9
 338:	0902                	c.slli64	s2
 33a:	0004                	0x4
 33c:	0501                	addi	a0,a0,0
 33e:	0301                	addi	t1,t1,0
 340:	0901                	addi	s2,s2,0
 342:	000c                	0xc
 344:	0301                	addi	t1,t1,0
 346:	0902                	c.slli64	s2
 348:	0010                	0x10
 34a:	0501                	addi	a0,a0,0
 34c:	0901030b          	0x901030b
 350:	0010                	0x10
 352:	0501                	addi	a0,a0,0
 354:	030a                	slli	t1,t1,0x2
 356:	0901                	addi	s2,s2,0
 358:	0004                	0x4
 35a:	0501                	addi	a0,a0,0
 35c:	031a                	slli	t1,t1,0x6
 35e:	0905                	addi	s2,s2,1
 360:	0004                	0x4
 362:	0501                	addi	a0,a0,0
 364:	031f 097f 0008      	0x8097f031f
 36a:	0501                	addi	a0,a0,0
 36c:	0319                	addi	t1,t1,6
 36e:	097f                	0x97f
 370:	0008                	0x8
 372:	0501                	addi	a0,a0,0
 374:	0310                	addi	a2,sp,384
 376:	0904                	addi	s1,sp,144
 378:	0004                	0x4
 37a:	0501                	addi	a0,a0,0
 37c:	0336                	slli	t1,t1,0xd
 37e:	0904                	addi	s1,sp,144
 380:	000c                	0xc
 382:	0501                	addi	a0,a0,0
 384:	0325                	addi	t1,t1,9
 386:	0900                	addi	s0,sp,144
 388:	0008                	0x8
 38a:	0501                	addi	a0,a0,0
 38c:	031c                	addi	a5,sp,384
 38e:	0900                	addi	s0,sp,144
 390:	0008                	0x8
 392:	0501                	addi	a0,a0,0
 394:	030c                	addi	a1,sp,384
 396:	0900                	addi	s0,sp,144
 398:	0024                	addi	s1,sp,8
 39a:	0501                	addi	a0,a0,0
 39c:	031a                	slli	t1,t1,0x6
 39e:	0902                	c.slli64	s2
 3a0:	0004                	0x4
 3a2:	0501                	addi	a0,a0,0
 3a4:	032d                	addi	t1,t1,11
 3a6:	0902                	c.slli64	s2
 3a8:	000c                	0xc
 3aa:	0501                	addi	a0,a0,0
 3ac:	0301                	addi	t1,t1,0
 3ae:	0901                	addi	s2,s2,0
 3b0:	0014                	0x14
 3b2:	0301                	addi	t1,t1,0
 3b4:	0902                	c.slli64	s2
 3b6:	0010                	0x10
 3b8:	0501                	addi	a0,a0,0
 3ba:	030c                	addi	a1,sp,384
 3bc:	0902                	c.slli64	s2
 3be:	0010                	0x10
 3c0:	0501                	addi	a0,a0,0
 3c2:	031f 0902 0004      	0x40902031f
 3c8:	0501                	addi	a0,a0,0
 3ca:	0320                	addi	s0,sp,392
 3cc:	00080903          	lb	s2,0(a6)
 3d0:	0501                	addi	a0,a0,0
 3d2:	0301                	addi	t1,t1,0
 3d4:	0902                	c.slli64	s2
 3d6:	000c                	0xc
 3d8:	0301                	addi	t1,t1,0
 3da:	0902                	c.slli64	s2
 3dc:	0010                	0x10
 3de:	0501                	addi	a0,a0,0
 3e0:	0312                	slli	t1,t1,0x4
 3e2:	090a                	slli	s2,s2,0x2
 3e4:	0014                	0x14
 3e6:	0501                	addi	a0,a0,0
 3e8:	031f 097f 0008      	0x8097f031f
 3ee:	0501                	addi	a0,a0,0
 3f0:	031d                	addi	t1,t1,7
 3f2:	097f                	0x97f
 3f4:	0008                	0x8
 3f6:	0501                	addi	a0,a0,0
 3f8:	031e                	slli	t1,t1,0x7
 3fa:	0905                	addi	s2,s2,1
 3fc:	0004                	0x4
 3fe:	0501                	addi	a0,a0,0
 400:	0301                	addi	t1,t1,0
 402:	0902                	c.slli64	s2
 404:	000c                	0xc
 406:	0301                	addi	t1,t1,0
 408:	00100903          	lb	s2,1(zero) # 1 <_start+0x1>
 40c:	0301                	addi	t1,t1,0
 40e:	0912                	slli	s2,s2,0x4
 410:	0010                	0x10
 412:	0301                	addi	t1,t1,0
 414:	0904                	addi	s1,sp,144
 416:	0010                	0x10
 418:	0501                	addi	a0,a0,0
 41a:	0901030b          	0x901030b
 41e:	0010                	0x10
 420:	0501                	addi	a0,a0,0
 422:	0332                	slli	t1,t1,0xc
 424:	00040903          	lb	s2,0(s0) # 18000 <_etext+0x177e8>
 428:	0501                	addi	a0,a0,0
 42a:	0322                	slli	t1,t1,0x8
 42c:	0902                	c.slli64	s2
 42e:	0010                	0x10
 430:	0501                	addi	a0,a0,0
 432:	031f 0901 0008      	0x80901031f
 438:	0501                	addi	a0,a0,0
 43a:	0325                	addi	t1,t1,9
 43c:	0901                	addi	s2,s2,0
 43e:	0008                	0x8
 440:	0501                	addi	a0,a0,0
 442:	0322                	slli	t1,t1,0x8
 444:	0901                	addi	s2,s2,0
 446:	0008                	0x8
 448:	0501                	addi	a0,a0,0
 44a:	030d                	addi	t1,t1,3
 44c:	0902                	c.slli64	s2
 44e:	0008                	0x8
 450:	0501                	addi	a0,a0,0
 452:	0302                	c.slli64	t1
 454:	0900                	addi	s0,sp,144
 456:	0008                	0x8
 458:	0501                	addi	a0,a0,0
 45a:	0028                	addi	a0,sp,8
 45c:	0402                	c.slli64	s0
 45e:	09020303          	lb	t1,144(tp) # ffff9090 <__stack_top+0xefff8090>
 462:	0004                	0x4
 464:	0501                	addi	a0,a0,0
 466:	0025                	c.nop	9
 468:	0402                	c.slli64	s0
 46a:	09010303          	lb	t1,144(sp)
 46e:	0014                	0x14
 470:	0501                	addi	a0,a0,0
 472:	0402002b          	0x402002b
 476:	09010303          	lb	t1,144(sp)
 47a:	0018                	0x18
 47c:	0501                	addi	a0,a0,0
 47e:	0028                	addi	a0,sp,8
 480:	0402                	c.slli64	s0
 482:	09010303          	lb	t1,144(sp)
 486:	0018                	0x18
 488:	0501                	addi	a0,a0,0
 48a:	04020003          	lb	zero,64(tp) # 40 <_start+0x40>
 48e:	09020303          	lb	t1,144(tp) # 90 <_start+0x90>
 492:	0014                	0x14
 494:	0501                	addi	a0,a0,0
 496:	0015                	c.nop	5
 498:	0402                	c.slli64	s0
 49a:	09030303          	lb	t1,144(t1) # 97f038e <_etext+0x97efb76>
 49e:	0008                	0x8
 4a0:	0501                	addi	a0,a0,0
 4a2:	04020003          	lb	zero,64(tp) # 40 <_start+0x40>
 4a6:	09040303          	lb	t1,144(s0)
 4aa:	001c                	0x1c
 4ac:	0501                	addi	a0,a0,0
 4ae:	0039                	c.nop	14
 4b0:	0402                	c.slli64	s0
 4b2:	09720303          	lb	t1,151(tp) # 97 <_start+0x97>
 4b6:	000c                	0xc
 4b8:	0501                	addi	a0,a0,0
 4ba:	0002                	c.slli64	zero
 4bc:	0402                	c.slli64	s0
 4be:	0301                	addi	t1,t1,0
 4c0:	0900                	addi	s0,sp,144
 4c2:	000c                	0xc
 4c4:	0301                	addi	t1,t1,0
 4c6:	0911                	addi	s2,s2,4
 4c8:	000c                	0xc
 4ca:	0501                	addi	a0,a0,0
 4cc:	0301                	addi	t1,t1,0
 4ce:	0902                	c.slli64	s2
 4d0:	0008                	0x8
 4d2:	0301                	addi	t1,t1,0
 4d4:	0904                	addi	s1,sp,144
 4d6:	0014                	0x14
 4d8:	0501                	addi	a0,a0,0
 4da:	0304                	addi	s1,sp,384
 4dc:	0905                	addi	s2,s2,1
 4de:	0014                	0x14
 4e0:	0501                	addi	a0,a0,0
 4e2:	0402000f          	0x402000f
 4e6:	0301                	addi	t1,t1,0
 4e8:	0900                	addi	s0,sp,144
 4ea:	000c                	0xc
 4ec:	0501                	addi	a0,a0,0
 4ee:	09020303          	lb	t1,144(tp) # 90 <_start+0x90>
 4f2:	000c                	0xc
 4f4:	0501                	addi	a0,a0,0
 4f6:	0302                	c.slli64	t1
 4f8:	00080903          	lb	s2,0(a6)
 4fc:	0501                	addi	a0,a0,0
 4fe:	0301                	addi	t1,t1,0
 500:	0902                	c.slli64	s2
 502:	0008                	0x8
 504:	0901                	addi	s2,s2,0
 506:	0014                	0x14
 508:	0100                	addi	s0,sp,128
 50a:	8f01                	sub	a4,a4,s0
 50c:	0001                	nop
 50e:	0300                	addi	s0,sp,384
 510:	df00                	sw	s0,56(a4)
 512:	0000                	unimp
 514:	0100                	addi	s0,sp,128
 516:	fb01                	bnez	a4,426 <interrupt_disable+0xa>
 518:	0d0e                	slli	s10,s10,0x3
 51a:	0100                	addi	s0,sp,128
 51c:	0101                	addi	sp,sp,0
 51e:	0001                	nop
 520:	0000                	unimp
 522:	0001                	nop
 524:	0100                	addi	s0,sp,128
 526:	6d6f682f          	0x6d6f682f
 52a:	2f65                	jal	ce2 <_etext+0x4ca>
 52c:	656d                	lui	a0,0x1b
 52e:	6c72                	flw	fs8,28(sp)
 530:	7469672f          	0x7469672f
 534:	7568                	flw	fa0,108(a0)
 536:	5f62                	lw	t5,56(sp)
 538:	6572                	flw	fa0,28(sp)
 53a:	6f70                	flw	fa2,92(a4)
 53c:	7a612f73          	csrrs	t5,0x7a6,sp
 540:	6461                	lui	s0,0x18
 542:	2f69                	jal	cdc <_etext+0x4c4>
 544:	6574                	flw	fa3,76(a0)
 546:	2f737473          	csrrci	s0,0x2f7,6
 54a:	7361                	lui	t1,0xffff8
 54c:	2f6d                	jal	d06 <_etext+0x4ee>
 54e:	6d6d6f63          	bltu	s10,s6,c2c <_etext+0x414>
 552:	2f006e6f          	jal	t3,6842 <_etext+0x602a>
 556:	6f74                	flw	fa3,92(a4)
 558:	2f736c6f          	jal	s8,3704e <_etext+0x36836>
 55c:	6972                	flw	fs2,28(sp)
 55e:	2f766373          	csrrsi	t1,0x2f7,12
 562:	6972                	flw	fs2,28(sp)
 564:	33766373          	csrrsi	t1,mhpmevent23,12
 568:	2d32                	fld	fs10,264(sp)
 56a:	6e75                	lui	t3,0x1d
 56c:	776f6e6b          	0x776f6e6b
 570:	2d6e                	fld	fs10,216(sp)
 572:	6c65                	lui	s8,0x19
 574:	2f66                	fld	ft10,88(sp)
 576:	2d737973          	csrrci	s2,0x2d7,6
 57a:	6e69                	lui	t3,0x1a
 57c:	64756c63          	bltu	a0,t2,bd4 <_etext+0x3bc>
 580:	2f65                	jal	d38 <_etext+0x520>
 582:	616d                	addi	sp,sp,240
 584:	6e696863          	bltu	s2,t1,c74 <_etext+0x45c>
 588:	0065                	c.nop	25
 58a:	6f6f742f          	0x6f6f742f
 58e:	736c                	flw	fa1,100(a4)
 590:	7369722f          	0x7369722f
 594:	722f7663          	bgeu	t5,sp,cc0 <_etext+0x4a8>
 598:	7369                	lui	t1,0xffffa
 59a:	32337663          	bgeu	t1,gp,8c6 <_etext+0xae>
 59e:	752d                	lui	a0,0xfffeb
 5a0:	6b6e                	flw	fs6,216(sp)
 5a2:	6f6e                	flw	ft10,216(sp)
 5a4:	652d6e77          	0x652d6e77
 5a8:	666c                	flw	fa1,76(a2)
 5aa:	7379732f          	0x7379732f
 5ae:	692d                	lui	s2,0xb
 5b0:	636e                	flw	ft6,216(sp)
 5b2:	756c                	flw	fa1,108(a0)
 5b4:	6564                	flw	fs1,76(a0)
 5b6:	7379732f          	0x7379732f
 5ba:	0000                	unimp
 5bc:	7274                	flw	fa3,100(a2)
 5be:	7061                	c.lui	zero,0xffff8
 5c0:	00632e73          	csrrs	t3,0x6,t1
 5c4:	0001                	nop
 5c6:	5f00                	lw	s0,56(a4)
 5c8:	6564                	flw	fs1,76(a0)
 5ca:	6166                	flw	ft2,88(sp)
 5cc:	6c75                	lui	s8,0x1d
 5ce:	5f74                	lw	a3,124(a4)
 5d0:	7974                	flw	fa3,116(a0)
 5d2:	6570                	flw	fa2,76(a0)
 5d4:	00682e73          	csrrs	t3,0x6,a6
 5d8:	0002                	c.slli64	zero
 5da:	5f00                	lw	s0,56(a4)
 5dc:	69647473          	csrrci	s0,0x696,8
 5e0:	746e                	flw	fs0,248(sp)
 5e2:	682e                	flw	fa6,200(sp)
 5e4:	0300                	addi	s0,sp,384
 5e6:	0000                	unimp
 5e8:	7274                	flw	fa3,100(a2)
 5ea:	7061                	c.lui	zero,0xffff8
 5ec:	00682e73          	csrrs	t3,0x6,a6
 5f0:	0001                	nop
 5f2:	0000                	unimp
 5f4:	0105                	addi	sp,sp,1
 5f6:	0500                	addi	s0,sp,640
 5f8:	b402                	fsd	ft0,40(sp)
 5fa:	0006                	c.slli	zero,0x1
 5fc:	1700                	addi	s0,sp,928
 5fe:	1105                	addi	sp,sp,-31
 600:	10090203          	lb	tp,256(s2) # b100 <_etext+0xa8e8>
 604:	0100                	addi	s0,sp,128
 606:	0905                	addi	s2,s2,1
 608:	14090103          	lb	sp,320(s2)
 60c:	0100                	addi	s0,sp,128
 60e:	0105                	addi	sp,sp,1
 610:	04090103          	lb	sp,64(s2)
 614:	0100                	addi	s0,sp,128
 616:	10090203          	lb	tp,256(s2)
 61a:	0100                	addi	s0,sp,128
 61c:	0705                	addi	a4,a4,1
 61e:	0200                	addi	s0,sp,256
 620:	0104                	addi	s1,sp,128
 622:	14090103          	lb	sp,320(s2)
 626:	0100                	addi	s0,sp,128
 628:	0105                	addi	sp,sp,1
 62a:	04090403          	lb	s0,64(s2)
 62e:	0100                	addi	s0,sp,128
 630:	0f05                	addi	t5,t5,1
 632:	18090103          	lb	sp,384(s2)
 636:	0100                	addi	s0,sp,128
 638:	0b05                	addi	s6,s6,1
 63a:	04090103          	lb	sp,64(s2)
 63e:	0100                	addi	s0,sp,128
 640:	0f05                	addi	t5,t5,1
 642:	04090203          	lb	tp,64(s2)
 646:	0100                	addi	s0,sp,128
 648:	1205                	addi	tp,tp,-31
 64a:	08090303          	lb	t1,128(s2)
 64e:	0100                	addi	s0,sp,128
 650:	0d05                	addi	s10,s10,1
 652:	10090003          	lb	zero,256(s2)
 656:	0100                	addi	s0,sp,128
 658:	0505                	addi	a0,a0,1
 65a:	08090003          	lb	zero,128(s2)
 65e:	0100                	addi	s0,sp,128
 660:	0e05                	addi	t3,t3,1
 662:	04090203          	lb	tp,64(s2)
 666:	0100                	addi	s0,sp,128
 668:	1905                	addi	s2,s2,-31
 66a:	0c090303          	lb	t1,192(s2)
 66e:	0100                	addi	s0,sp,128
 670:	0305                	addi	t1,t1,1
 672:	14090003          	lb	zero,320(s2)
 676:	0100                	addi	s0,sp,128
 678:	1405                	addi	s0,s0,-31
 67a:	10090503          	lb	a0,256(s2)
 67e:	0100                	addi	s0,sp,128
 680:	0305                	addi	t1,t1,1
 682:	14090003          	lb	zero,320(s2)
 686:	0100                	addi	s0,sp,128
 688:	0805                	addi	a6,a6,1
 68a:	0c090203          	lb	tp,192(s2)
 68e:	0100                	addi	s0,sp,128
 690:	0105                	addi	sp,sp,1
 692:	04090103          	lb	sp,64(s2)
 696:	0100                	addi	s0,sp,128
 698:	1409                	addi	s0,s0,-30
 69a:	0000                	unimp
 69c:	0101                	addi	sp,sp,0
 69e:	0139                	addi	sp,sp,14
 6a0:	0000                	unimp
 6a2:	00ef0003          	lb	zero,14(t5)
 6a6:	0000                	unimp
 6a8:	0101                	addi	sp,sp,0
 6aa:	000d0efb          	0xd0efb
 6ae:	0101                	addi	sp,sp,0
 6b0:	0101                	addi	sp,sp,0
 6b2:	0000                	unimp
 6b4:	0100                	addi	s0,sp,128
 6b6:	0000                	unimp
 6b8:	2f01                	jal	dc8 <_etext+0x5b0>
 6ba:	6f68                	flw	fa0,92(a4)
 6bc:	656d                	lui	a0,0x1b
 6be:	72656d2f          	0x72656d2f
 6c2:	2f6c                	fld	fa1,216(a4)
 6c4:	68746967          	0x68746967
 6c8:	6275                	lui	tp,0x1d
 6ca:	725f 7065 736f      	0x736f7065725f
 6d0:	617a612f          	0x617a612f
 6d4:	6964                	flw	fs1,84(a0)
 6d6:	7365742f          	0x7365742f
 6da:	7374                	flw	fa3,100(a4)
 6dc:	6d73612f          	0x6d73612f
 6e0:	6d6f632f          	0x6d6f632f
 6e4:	6f6d                	lui	t5,0x1b
 6e6:	006e                	c.slli	zero,0x1b
 6e8:	6f6f742f          	0x6f6f742f
 6ec:	736c                	flw	fa1,100(a4)
 6ee:	7369722f          	0x7369722f
 6f2:	722f7663          	bgeu	t5,sp,e1e <_etext+0x606>
 6f6:	7369                	lui	t1,0xffffa
 6f8:	32337663          	bgeu	t1,gp,a24 <_etext+0x20c>
 6fc:	752d                	lui	a0,0xfffeb
 6fe:	6b6e                	flw	fs6,216(sp)
 700:	6f6e                	flw	ft10,216(sp)
 702:	652d6e77          	0x652d6e77
 706:	666c                	flw	fa1,76(a2)
 708:	7379732f          	0x7379732f
 70c:	692d                	lui	s2,0xb
 70e:	636e                	flw	ft6,216(sp)
 710:	756c                	flw	fa1,108(a0)
 712:	6564                	flw	fs1,76(a0)
 714:	63616d2f          	0x63616d2f
 718:	6968                	flw	fa0,84(a0)
 71a:	656e                	flw	fa0,216(sp)
 71c:	2f00                	fld	fs0,24(a4)
 71e:	6f74                	flw	fa3,92(a4)
 720:	2f736c6f          	jal	s8,37216 <_etext+0x369fe>
 724:	6972                	flw	fs2,28(sp)
 726:	2f766373          	csrrsi	t1,0x2f7,12
 72a:	6972                	flw	fs2,28(sp)
 72c:	33766373          	csrrsi	t1,mhpmevent23,12
 730:	2d32                	fld	fs10,264(sp)
 732:	6e75                	lui	t3,0x1d
 734:	776f6e6b          	0x776f6e6b
 738:	2d6e                	fld	fs10,216(sp)
 73a:	6c65                	lui	s8,0x19
 73c:	2f66                	fld	ft10,88(sp)
 73e:	2d737973          	csrrci	s2,0x2d7,6
 742:	6e69                	lui	t3,0x1a
 744:	64756c63          	bltu	a0,t2,d9c <_etext+0x584>
 748:	2f65                	jal	f00 <_etext+0x6e8>
 74a:	00737973          	csrrci	s2,0x7,6
 74e:	6900                	flw	fs0,16(a0)
 750:	696e                	flw	fs2,216(sp)
 752:	2e74                	fld	fa3,216(a2)
 754:	00010063          	beqz	sp,754 <handle_trap+0x50>
 758:	5f00                	lw	s0,56(a4)
 75a:	6564                	flw	fs1,76(a0)
 75c:	6166                	flw	ft2,88(sp)
 75e:	6c75                	lui	s8,0x1d
 760:	5f74                	lw	a3,124(a4)
 762:	7974                	flw	fa3,116(a0)
 764:	6570                	flw	fa2,76(a0)
 766:	00682e73          	csrrs	t3,0x6,a6
 76a:	0002                	c.slli64	zero
 76c:	5f00                	lw	s0,56(a4)
 76e:	69647473          	csrrci	s0,0x696,8
 772:	746e                	flw	fs0,248(sp)
 774:	682e                	flw	fa6,200(sp)
 776:	0300                	addi	s0,sp,384
 778:	0000                	unimp
 77a:	7274                	flw	fa3,100(a2)
 77c:	7061                	c.lui	zero,0xffff8
 77e:	00682e73          	csrrs	t3,0x6,a6
 782:	0001                	nop
 784:	7000                	flw	fs0,32(s0)
 786:	696c                	flw	fa1,84(a0)
 788:	72645f63          	bge	s0,t1,ec6 <_etext+0x6ae>
 78c:	7669                	lui	a2,0xffffa
 78e:	7265                	lui	tp,0xffff9
 790:	682e                	flw	fa6,200(sp)
 792:	0100                	addi	s0,sp,128
 794:	0000                	unimp
 796:	0500                	addi	s0,sp,640
 798:	0001                	nop
 79a:	0205                	addi	tp,tp,1
 79c:	07b0                	addi	a2,sp,968
 79e:	0000                	unimp
 7a0:	0515                	addi	a0,a0,5
 7a2:	09010333          	0x9010333
 7a6:	000c                	0xc
 7a8:	0501                	addi	a0,a0,0
 7aa:	09020337          	lui	t1,0x9020
 7ae:	0010                	0x10
 7b0:	0501                	addi	a0,a0,0
 7b2:	0301                	addi	t1,t1,0
 7b4:	0901                	addi	s2,s2,0
 7b6:	0010                	0x10
 7b8:	0301                	addi	t1,t1,0
 7ba:	00100903          	lb	s2,1(zero) # 1 <_start+0x1>
 7be:	0501                	addi	a0,a0,0
 7c0:	0302                	c.slli64	t1
 7c2:	0901                	addi	s2,s2,0
 7c4:	0010                	0x10
 7c6:	0301                	addi	t1,t1,0
 7c8:	0902                	c.slli64	s2
 7ca:	0004                	0x4
 7cc:	0501                	addi	a0,a0,0
 7ce:	0301                	addi	t1,t1,0
 7d0:	0901                	addi	s2,s2,0
 7d2:	0004                	0x4
 7d4:	0901                	addi	s2,s2,0
 7d6:	0014                	0x14
 7d8:	0100                	addi	s0,sp,128
 7da:	01              	Address 0x00000000000007da is out of bounds.


Disassembly of section .debug_str:

00000000 <.debug_str>:
   0:	645f 6f73 685f      	0x685f6f73645f
   6:	6e61                	lui	t3,0x18
   8:	6c64                	flw	fs1,92(s0)
   a:	0065                	c.nop	25
   c:	735f 7a69 0065      	0x657a69735f
  12:	725f 6e61 3464      	0x34646e61725f
  18:	0038                	addi	a4,sp,8
  1a:	655f 656d 6772      	0x6772656d655f
  20:	6e65                	lui	t3,0x19
  22:	5f007963          	bgeu	zero,a6,614 <plic_init+0xbc>
  26:	6164                	flw	fs1,68(a0)
  28:	6174                	flw	fa3,68(a0)
  2a:	5f00                	lw	s0,56(a4)
  2c:	74726377          	0x74726377
  30:	5f626d6f          	jal	s10,26626 <_etext+0x25e0e>
  34:	74617473          	csrrci	s0,0x746,2
  38:	0065                	c.nop	25
  3a:	775f 7363 7472      	0x74727363775f
  40:	73626d6f          	jal	s10,26776 <_etext+0x25f5e>
  44:	735f 6174 6574      	0x65746174735f
  4a:	6c00                	flw	fs0,24(s0)
  4c:	20676e6f          	jal	t3,76252 <_etext+0x75a3a>
  50:	6f6c                	flw	fa1,92(a4)
  52:	676e                	flw	fa4,216(sp)
  54:	7520                	flw	fs0,104(a0)
  56:	736e                	flw	ft6,248(sp)
  58:	6769                	lui	a4,0x1a
  5a:	656e                	flw	fa0,216(sp)
  5c:	2064                	fld	fs1,192(s0)
  5e:	6e69                	lui	t3,0x1a
  60:	0074                	addi	a3,sp,12
  62:	6c5f 6662 6973      	0x697366626c5f
  68:	657a                	flw	fa0,156(sp)
  6a:	5f00                	lw	s0,56(a4)
  6c:	6c5f 636f 6c61      	0x6c61636f6c5f
  72:	5f65                	li	t5,-7
  74:	0074                	addi	a3,sp,12
  76:	6d5f 7262 6f74      	0x6f7472626d5f
  7c:	735f6377          	0x735f6377
  80:	6174                	flw	fa3,68(a0)
  82:	6574                	flw	fa3,76(a0)
  84:	5f00                	lw	s0,56(a4)
  86:	6f746377          	0x6f746377
  8a:	626d                	lui	tp,0x1b
  8c:	735f 6174 6574      	0x65746174735f
  92:	5f00                	lw	s0,56(a4)
  94:	745f 5f6d 6573      	0x65735f6d745f
  9a:	6f6c0063          	beq	s8,s6,77a <handle_trap+0x76>
  9e:	676e                	flw	fa4,216(sp)
  a0:	6c20                	flw	fs0,88(s0)
  a2:	20676e6f          	jal	t3,762a8 <_etext+0x75a90>
  a6:	6e69                	lui	t3,0x1a
  a8:	0074                	addi	a3,sp,12
  aa:	755f 7562 0066      	0x667562755f
  b0:	625f 7361 0065      	0x657361625f
  b6:	5f5f 6d74 685f      	0x685f6d745f5f
  bc:	0072756f          	jal	a0,278c2 <_etext+0x270aa>
  c0:	5f5f 6673 5f00      	0x5f0066735f5f
  c6:	655f6e6f          	jal	t3,f6f1a <_etext+0xf6702>
  ca:	6978                	flw	fa4,84(a0)
  cc:	5f74                	lw	a3,124(a4)
  ce:	7261                	lui	tp,0xffff8
  d0:	5f007367          	0x5f007367
  d4:	6b6f6f63          	bltu	t5,s6,792 <handle_trap+0x8e>
  d8:	6569                	lui	a0,0x1a
  da:	5f00                	lw	s0,56(a4)
  dc:	735f 6c67 6575      	0x65756c67735f
  e2:	5f00                	lw	s0,56(a4)
  e4:	6c66                	flw	fs8,88(sp)
  e6:	6761                	lui	a4,0x18
  e8:	695f0073          	0x695f0073
  ec:	78635f73          	csrrwi	t5,0x786,6
  f0:	0061                	c.nop	24
  f2:	735f 6474 6e69      	0x6e696474735f
  f8:	5f00                	lw	s0,56(a4)
  fa:	6c62                	flw	fs8,24(sp)
  fc:	7a69736b          	0x7a69736b
 100:	0065                	c.nop	25
 102:	635f 7476 7562      	0x75627476635f
 108:	0066                	c.slli	zero,0x19
 10a:	6f5f 6666 6573      	0x657366666f5f
 110:	0074                	addi	a3,sp,12
 112:	6d5f 7362 7472      	0x747273626d5f
 118:	7363776f          	jal	a4,3784e <_etext+0x37036>
 11c:	735f 6174 6574      	0x65746174735f
 122:	5f00                	lw	s0,56(a4)
 124:	626d                	lui	tp,0x1b
 126:	6c72                	flw	fs8,28(sp)
 128:	6e65                	lui	t3,0x19
 12a:	735f 6174 6574      	0x65746174735f
 130:	5f00                	lw	s0,56(a4)
 132:	6e66                	flw	ft8,88(sp)
 134:	7261                	lui	tp,0xffff8
 136:	5f007367          	0x5f007367
 13a:	6e66                	flw	ft8,88(sp)
 13c:	735f0073          	0x735f0073
 140:	6769                	lui	a4,0x1a
 142:	006e                	c.slli	zero,0x1b
 144:	665f 6f6c 6b63      	0x6b636f6c665f
 14a:	745f 5f00 7473      	0x74735f00745f
 150:	6564                	flw	fs1,76(a0)
 152:	7272                	flw	ft4,60(sp)
 154:	5f00                	lw	s0,56(a4)
 156:	6942                	flw	fs2,16(sp)
 158:	746e6967          	0x746e6967
 15c:	5f00                	lw	s0,56(a4)
 15e:	6d6d6167          	0x6d6d6167
 162:	5f61                	li	t5,-8
 164:	6e676973          	csrrsi	s2,0x6e6,14
 168:	006d6167          	0x6d6167
 16c:	725f 6165 0064      	0x646165725f
 172:	725f 7365 6c75      	0x6c757365725f
 178:	5f74                	lw	a3,124(a4)
 17a:	5f5f006b          	0x5f5f006b
 17e:	6d74                	flw	fa3,92(a0)
 180:	5f00                	lw	s0,56(a4)
 182:	775f 6863 0062      	0x626863775f
 188:	735f 6474 756f      	0x756f6474735f
 18e:	0074                	addi	a3,sp,12
 190:	635f 7476 656c      	0x656c7476635f
 196:	006e                	c.slli	zero,0x1b
 198:	6f5f 6666 745f      	0x745f66666f5f
 19e:	2f00                	fld	fs0,24(a4)
 1a0:	6f68                	flw	fa0,92(a4)
 1a2:	656d                	lui	a0,0x1b
 1a4:	72656d2f          	0x72656d2f
 1a8:	2f6c                	fld	fa1,216(a4)
 1aa:	68746967          	0x68746967
 1ae:	6275                	lui	tp,0x1d
 1b0:	725f 7065 736f      	0x736f7065725f
 1b6:	617a612f          	0x617a612f
 1ba:	6964                	flw	fs1,84(a0)
 1bc:	7365742f          	0x7365742f
 1c0:	7374                	flw	fa3,100(a4)
 1c2:	6d73612f          	0x6d73612f
 1c6:	6464612f          	0x6464612f
 1ca:	632e                	flw	ft6,200(sp)
 1cc:	5f00                	lw	s0,56(a4)
 1ce:	696e                	flw	fs2,216(sp)
 1d0:	0073626f          	jal	tp,369d6 <_etext+0x361be>
 1d4:	20554e47          	fmsub.s	ft8,fa0,ft5,ft4,rmm
 1d8:	20393943          	fmadd.s	fs2,fs2,ft3,ft4,rup
 1dc:	2e39                	jal	4fa <set_interrupt_priority+0x6>
 1de:	2e32                	fld	ft8,264(sp)
 1e0:	2030                	fld	fa2,64(s0)
 1e2:	6d2d                	lui	s10,0xb
 1e4:	7261                	lui	tp,0xffff8
 1e6:	723d6863          	bltu	s10,gp,916 <_etext+0xfe>
 1ea:	3376                	fld	ft6,376(sp)
 1ec:	6932                	flw	fs2,12(sp)
 1ee:	2d20                	fld	fs0,88(a0)
 1f0:	616d                	addi	sp,sp,240
 1f2:	6962                	flw	fs2,24(sp)
 1f4:	693d                	lui	s2,0xf
 1f6:	706c                	flw	fa1,100(s0)
 1f8:	2d203233          	0x2d203233
 1fc:	636d                	lui	t1,0x1b
 1fe:	6f6d                	lui	t5,0x1b
 200:	6564                	flw	fs1,76(a0)
 202:	3d6c                	fld	fa1,248(a0)
 204:	656d                	lui	a0,0x1b
 206:	6164                	flw	fs1,68(a0)
 208:	796e                	flw	fs2,248(sp)
 20a:	2d20                	fld	fs0,88(a0)
 20c:	62646767          	0x62646767
 210:	2d20                	fld	fs0,88(a0)
 212:	3d647473          	csrrci	s0,0x3d6,8
 216:	39756e67          	0x39756e67
 21a:	0039                	c.nop	14
 21c:	726f6873          	csrrsi	a6,0x726,30
 220:	2074                	fld	fa3,192(s0)
 222:	6e75                	lui	t3,0x1d
 224:	6e676973          	csrrsi	s2,0x6e6,14
 228:	6465                	lui	s0,0x19
 22a:	6920                	flw	fs0,80(a0)
 22c:	746e                	flw	fs0,248(sp)
 22e:	5f00                	lw	s0,56(a4)
 230:	7461                	lui	s0,0xffff8
 232:	7865                	lui	a6,0xffff9
 234:	7469                	lui	s0,0xffffa
 236:	0030                	addi	a2,sp,8
 238:	735f 6769 616e      	0x616e6769735f
 23e:	5f6c                	lw	a1,124(a4)
 240:	7562                	flw	fa0,56(sp)
 242:	0066                	c.slli	zero,0x19
 244:	615f 6373 6974      	0x69746373615f
 24a:	656d                	lui	a0,0x1b
 24c:	625f 6675 5f00      	0x5f006675625f
 252:	6572                	flw	fa0,28(sp)
 254:	746c7573          	csrrci	a0,0x746,24
 258:	5f00                	lw	s0,56(a4)
 25a:	775f 6863 7700      	0x77006863775f
 260:	6e69                	lui	t3,0x1a
 262:	5f74                	lw	a3,124(a4)
 264:	0074                	addi	a3,sp,12
 266:	6c5f 636f 006b      	0x6b636f6c5f
 26c:	665f 616c 7367      	0x7367616c665f
 272:	0032                	c.slli	zero,0xc
 274:	775f 6972 6574      	0x65746972775f
 27a:	5f00                	lw	s0,56(a4)
 27c:	745f 5f6d 6579      	0x65795f6d745f
 282:	7261                	lui	tp,0xffff8
 284:	5f00                	lw	s0,56(a4)
 286:	6d6e                	flw	fs10,216(sp)
 288:	6c61                	lui	s8,0x18
 28a:	6f6c                	flw	fa1,92(a4)
 28c:	6e5f0063          	beq	t5,t0,96c <_etext+0x154>
 290:	7865                	lui	a6,0xffff9
 292:	6674                	flw	fa3,76(a2)
 294:	5f00                	lw	s0,56(a4)
 296:	745f 5f6d 6f6d      	0x6f6d5f6d745f
 29c:	006e                	c.slli	zero,0x1b
 29e:	615f 6574 6978      	0x69786574615f
 2a4:	0074                	addi	a3,sp,12
 2a6:	5f5f 6473 6469      	0x646964735f5f
 2ac:	6e69                	lui	t3,0x1a
 2ae:	7469                	lui	s0,0xffffa
 2b0:	2f00                	fld	fs0,24(a4)
 2b2:	6f68                	flw	fa0,92(a4)
 2b4:	656d                	lui	a0,0x1b
 2b6:	72656d2f          	0x72656d2f
 2ba:	2f6c                	fld	fa1,216(a4)
 2bc:	68746967          	0x68746967
 2c0:	6275                	lui	tp,0x1d
 2c2:	725f 7065 736f      	0x736f7065725f
 2c8:	617a612f          	0x617a612f
 2cc:	6964                	flw	fs1,84(a0)
 2ce:	6f6f742f          	0x6f6f742f
 2d2:	736c                	flw	fa1,100(a4)
 2d4:	5f00                	lw	s0,56(a4)
 2d6:	7266                	flw	ft4,120(sp)
 2d8:	6565                	lui	a0,0x19
 2da:	696c                	flw	fa1,84(a0)
 2dc:	5f007473          	csrrci	s0,0x5f0,0
 2e0:	4f4c                	lw	a1,28(a4)
 2e2:	525f4b43          	fmadd.d	fs6,ft10,ft5,fa0,rmm
 2e6:	4345                	li	t1,17
 2e8:	5255                	li	tp,-11
 2ea:	45564953          	0x45564953
 2ee:	545f 7500 736e      	0x736e7500545f
 2f4:	6769                	lui	a4,0x1a
 2f6:	656e                	flw	fa0,216(sp)
 2f8:	2064                	fld	fs1,192(s0)
 2fa:	72616863          	bltu	sp,t1,a2a <_etext+0x212>
 2fe:	5f00                	lw	s0,56(a4)
 300:	656e                	flw	fa0,216(sp)
 302:	685f0077          	0x685f0077
 306:	655f 7272 6f6e      	0x6f6e7272655f
 30c:	7300                	flw	fs0,32(a4)
 30e:	6f68                	flw	fa0,92(a4)
 310:	7472                	flw	fs0,60(sp)
 312:	6920                	flw	fs0,80(a0)
 314:	746e                	flw	fs0,248(sp)
 316:	5f00                	lw	s0,56(a4)
 318:	745f 5f6d 6479      	0x64795f6d745f
 31e:	7961                	lui	s2,0xffff8
 320:	5f00                	lw	s0,56(a4)
 322:	735f 7562 0066      	0x667562735f
 328:	695f 626f 0073      	0x73626f695f
 32e:	5f5f 4946 454c      	0x454c49465f5f
 334:	5f00                	lw	s0,56(a4)
 336:	626d                	lui	tp,0x1b
 338:	74617473          	csrrci	s0,0x746,2
 33c:	5f65                	li	t5,-7
 33e:	0074                	addi	a3,sp,12
 340:	5f5f 4673 4c49      	0x4c4946735f5f
 346:	0045                	c.nop	17
 348:	6d5f 7362 6174      	0x617473626d5f
 34e:	6574                	flw	fa3,76(a0)
 350:	5f00                	lw	s0,56(a4)
 352:	6172                	flw	ft2,28(sp)
 354:	646e                	flw	fs0,216(sp)
 356:	6e5f 7865 0074      	0x7478656e5f
 35c:	6d5f 6c62 6e65      	0x6e656c626d5f
 362:	735f 6174 6574      	0x65746174735f
 368:	5f00                	lw	s0,56(a4)
 36a:	6e69                	lui	t3,0x1a
 36c:	695f0063          	beq	t5,s5,9ec <_etext+0x1d4>
 370:	646e                	flw	fs0,216(sp)
 372:	5f00                	lw	s0,56(a4)
 374:	6f6c                	flw	fa1,92(a4)
 376:	656c6163          	bltu	s8,s6,9b8 <_etext+0x1a0>
 37a:	5f00                	lw	s0,56(a4)
 37c:	635f 656c 6e61      	0x6e61656c635f
 382:	7075                	c.lui	zero,0xffffd
 384:	5f00                	lw	s0,56(a4)
 386:	6e75                	lui	t3,0x1d
 388:	63657073          	csrci	0x636,10
 38c:	6669                	lui	a2,0x1a
 38e:	6569                	lui	a0,0x1a
 390:	5f64                	lw	s1,124(a4)
 392:	6f6c                	flw	fa1,92(a4)
 394:	656c6163          	bltu	s8,s6,9d6 <_etext+0x1be>
 398:	695f 666e 006f      	0x6f666e695f
 39e:	6d5f 7861 6477      	0x647778616d5f
 3a4:	725f0073          	0x725f0073
 3a8:	6565                	lui	a0,0x19
 3aa:	746e                	flw	fs0,248(sp)
 3ac:	5f00                	lw	s0,56(a4)
 3ae:	64656573          	csrrsi	a0,0x646,10
 3b2:	5f00                	lw	s0,56(a4)
 3b4:	635f 756f 746e      	0x746e756f635f
 3ba:	5f00                	lw	s0,56(a4)
 3bc:	765f 6c61 6575      	0x65756c61765f
 3c2:	5f00                	lw	s0,56(a4)
 3c4:	6b656573          	csrrsi	a0,0x6b6,10
 3c8:	5f00                	lw	s0,56(a4)
 3ca:	7066                	flw	ft0,120(sp)
 3cc:	745f736f          	jal	t1,f8310 <_etext+0xf7af8>
 3d0:	5f00                	lw	s0,56(a4)
 3d2:	745f 5f6d 696d      	0x696d5f6d745f
 3d8:	006e                	c.slli	zero,0x1b
 3da:	6d5f 6c75 0074      	0x746c756d5f
 3e0:	735f 7274 6f74      	0x6f747274735f
 3e6:	616c5f6b          	0x616c5f6b
 3ea:	5f007473          	csrrci	s0,0x5f0,0
 3ee:	6e66                	flw	ft8,88(sp)
 3f0:	7974                	flw	fa3,116(a0)
 3f2:	6570                	flw	fa2,76(a0)
 3f4:	615f0073          	0x615f0073
 3f8:	6464                	flw	fs1,76(s0)
 3fa:	5f00                	lw	s0,56(a4)
 3fc:	555f 6f4c 676e      	0x676e6f4c555f
 402:	5f00                	lw	s0,56(a4)
 404:	64746567          	0x64746567
 408:	7461                	lui	s0,0xffff8
 40a:	5f65                	li	t5,-7
 40c:	7265                	lui	tp,0xffff9
 40e:	0072                	c.slli	zero,0x1c
 410:	675f 6f6c 6162      	0x61626f6c675f
 416:	5f6c                	lw	a1,124(a4)
 418:	6d69                	lui	s10,0x1a
 41a:	7570                	flw	fa2,108(a0)
 41c:	6572                	flw	fa0,28(sp)
 41e:	705f 7274 5f00      	0x5f007274705f
 424:	6e75                	lui	t3,0x1d
 426:	7375                	lui	t1,0xffffd
 428:	6465                	lui	s0,0x19
 42a:	725f 6e61 0064      	0x646e61725f
 430:	665f 6c69 0065      	0x656c69665f
 436:	775f 7364 5f00      	0x5f007364775f
 43c:	745f 5f6d 6477      	0x64775f6d745f
 442:	7961                	lui	s2,0xffff8
 444:	5f00                	lw	s0,56(a4)
 446:	65756c67          	0x65756c67
 44a:	5f00                	lw	s0,56(a4)
 44c:	7a697373          	csrrci	t1,0x7a6,18
 450:	5f65                	li	t5,-7
 452:	0074                	addi	a3,sp,12
 454:	6c5f 3436 5f61      	0x5f6134366c5f
 45a:	7562                	flw	fa0,56(sp)
 45c:	0066                	c.slli	zero,0x19
 45e:	735f 6769 665f      	0x665f6769735f
 464:	6e75                	lui	t3,0x1d
 466:	6e5f0063          	beq	t5,t0,b46 <_etext+0x32e>
 46a:	7562                	flw	fa0,56(sp)
 46c:	0066                	c.slli	zero,0x19
 46e:	755f 756e 6573      	0x6573756e755f
 474:	0064                	addi	s1,sp,12
 476:	5f5f 6d74 695f      	0x695f6d745f5f
 47c:	74736473          	csrrsi	s0,0x747,6
 480:	5f00                	lw	s0,56(a4)
 482:	6f6c                	flw	fa1,92(a4)
 484:	746c6163          	bltu	s8,t1,bc6 <_etext+0x3ae>
 488:	6d69                	lui	s10,0x1a
 48a:	5f65                	li	t5,-7
 48c:	7562                	flw	fa0,56(sp)
 48e:	0066                	c.slli	zero,0x19
 490:	635f 6f6c 6573      	0x65736f6c635f
 496:	5f00                	lw	s0,56(a4)
 498:	3472                	fld	fs0,312(sp)
 49a:	0038                	addi	a4,sp,8
 49c:	6d5f 7462 776f      	0x776f74626d5f
 4a2:	74735f63          	bge	t1,t2,c00 <_etext+0x3e8>
 4a6:	7461                	lui	s0,0xffff8
 4a8:	0065                	c.nop	25
 4aa:	705f 7335 6d00      	0x6d007335705f
 4b0:	6961                	lui	s2,0x18
 4b2:	006e                	c.slli	zero,0x1b
 4b4:	5f5f 6d74 6d5f      	0x6d5f6d745f5f
 4ba:	6164                	flw	fs1,68(a0)
 4bc:	0079                	c.nop	30
 4be:	6572                	flw	fa0,28(sp)
 4c0:	6461                	lui	s0,0x18
 4c2:	775f 726f 0064      	0x64726f775f
 4c8:	6e69                	lui	t3,0x1a
 4ca:	6574                	flw	fa3,76(a0)
 4cc:	7272                	flw	ft4,60(sp)
 4ce:	7075                	c.lui	zero,0xffffd
 4d0:	5f74                	lw	a3,124(a4)
 4d2:	706d6f63          	bltu	s10,t1,bf0 <_etext+0x3d8>
 4d6:	656c                	flw	fa1,76(a0)
 4d8:	6574                	flw	fa3,76(a0)
 4da:	7700                	flw	fs0,40(a4)
 4dc:	6972                	flw	fs2,28(sp)
 4de:	6574                	flw	fa3,76(a0)
 4e0:	775f 726f 0064      	0x64726f775f
 4e6:	414d                	li	sp,19
 4e8:	44454b53          	0x44454b53
 4ec:	6800                	flw	fs0,16(s0)
 4ee:	7261                	lui	tp,0xffff8
 4f0:	3074                	fld	fa3,224(s0)
 4f2:	695f 746e 7265      	0x7265746e695f
 4f8:	7572                	flw	fa0,60(sp)
 4fa:	7470                	flw	fa2,108(s0)
 4fc:	6d5f 7461 6972      	0x697274616d5f
 502:	0078                	addi	a4,sp,12
 504:	666e6f63          	bltu	t3,t1,b82 <_etext+0x36a>
 508:	6769                	lui	a4,0x1a
 50a:	7275                	lui	tp,0xffffd
 50c:	5f65                	li	t5,-7
 50e:	6e69                	lui	t3,0x1a
 510:	6574                	flw	fa3,76(a0)
 512:	7272                	flw	ft4,60(sp)
 514:	7075                	c.lui	zero,0xffffd
 516:	5f74                	lw	a3,124(a4)
 518:	6970                	flw	fa2,84(a0)
 51a:	006e                	c.slli	zero,0x1b
 51c:	666e6f63          	bltu	t3,t1,b9a <_etext+0x382>
 520:	6769                	lui	a4,0x1a
 522:	7275                	lui	tp,0xffffd
 524:	5f65                	li	t5,-7
 526:	6e69                	lui	t3,0x1a
 528:	6574                	flw	fa3,76(a0)
 52a:	7272                	flw	ft4,60(sp)
 52c:	7075                	c.lui	zero,0xffffd
 52e:	0074                	addi	a3,sp,12
 530:	6d6f682f          	0x6d6f682f
 534:	2f65                	jal	cec <_etext+0x4d4>
 536:	656d                	lui	a0,0x1b
 538:	6c72                	flw	fs8,28(sp)
 53a:	7469672f          	0x7469672f
 53e:	7568                	flw	fa0,108(a0)
 540:	5f62                	lw	t5,56(sp)
 542:	6572                	flw	fa0,28(sp)
 544:	6f70                	flw	fa2,92(a4)
 546:	7a612f73          	csrrs	t5,0x7a6,sp
 54a:	6461                	lui	s0,0x18
 54c:	2f69                	jal	ce6 <_etext+0x4ce>
 54e:	6574                	flw	fa3,76(a0)
 550:	2f737473          	csrrci	s0,0x2f7,6
 554:	7361                	lui	t1,0xffff8
 556:	2f6d                	jal	d10 <_etext+0x4f8>
 558:	6d6d6f63          	bltu	s10,s6,c36 <_etext+0x41e>
 55c:	702f6e6f          	jal	t3,f6c5e <_etext+0xf6446>
 560:	696c                	flw	fa1,84(a0)
 562:	72645f63          	bge	s0,t1,ca0 <_etext+0x488>
 566:	7669                	lui	a2,0xffffa
 568:	7265                	lui	tp,0xffff9
 56a:	632e                	flw	ft6,200(sp)
 56c:	5f00                	lw	s0,56(a4)
 56e:	755f 6e69 3374      	0x33746e69755f
 574:	5f32                	lw	t5,44(sp)
 576:	0074                	addi	a3,sp,12
 578:	6e69                	lui	t3,0x1a
 57a:	5f74                	lw	a3,124(a4)
 57c:	6469                	lui	s0,0x1a
 57e:	6300                	flw	fs0,0(a4)
 580:	7275                	lui	tp,0xffffd
 582:	6572                	flw	fa0,28(sp)
 584:	746e                	flw	fs0,248(sp)
 586:	765f 6c61 6575      	0x65756c61765f
 58c:	6900                	flw	fs0,16(a0)
 58e:	746e                	flw	fs0,248(sp)
 590:	7265                	lui	tp,0xffff9
 592:	7572                	flw	fa0,60(sp)
 594:	7470                	flw	fa2,108(s0)
 596:	645f 7369 6261      	0x62617369645f
 59c:	656c                	flw	fa1,76(a0)
 59e:	6900                	flw	fs0,16(a0)
 5a0:	746e                	flw	fs0,248(sp)
 5a2:	7265                	lui	tp,0xffff9
 5a4:	7572                	flw	fa0,60(sp)
 5a6:	7470                	flw	fa2,108(s0)
 5a8:	635f 616c 6d69      	0x6d69616c635f
 5ae:	615f 6464 6572      	0x65726464615f
 5b4:	63007373          	csrrci	t1,0x630,0
 5b8:	616c                	flw	fa1,68(a0)
 5ba:	6d69                	lui	s10,0x1a
 5bc:	615f 6464 0072      	0x726464615f
 5c2:	7369                	lui	t1,0xffffa
 5c4:	5f72                	lw	t5,60(sp)
 5c6:	6174                	flw	fa3,68(a0)
 5c8:	6c62                	flw	fs8,24(sp)
 5ca:	0065                	c.nop	25
 5cc:	746d                	lui	s0,0xffffb
 5ce:	6172                	flw	ft2,28(sp)
 5d0:	5f70                	lw	a2,124(a4)
 5d2:	7066                	flw	ft0,120(sp)
 5d4:	7274                	flw	fa3,100(a2)
 5d6:	745f 6900 746e      	0x746e6900745f
 5dc:	7265                	lui	tp,0xffff9
 5de:	7572                	flw	fa0,60(sp)
 5e0:	7470                	flw	fa2,108(s0)
 5e2:	655f 616e 6c62      	0x6c62616e655f
 5e8:	0065                	c.nop	25
 5ea:	5f5f 6975 746e      	0x746e69755f5f
 5f0:	5f38                	lw	a4,120(a4)
 5f2:	0074                	addi	a3,sp,12
 5f4:	5f746573          	csrrsi	a0,0x5f7,8
 5f8:	6e69                	lui	t3,0x1a
 5fa:	6574                	flw	fa3,76(a0)
 5fc:	7272                	flw	ft4,60(sp)
 5fe:	7075                	c.lui	zero,0xffffd
 600:	5f74                	lw	a3,124(a4)
 602:	6874                	flw	fa3,84(s0)
 604:	6572                	flw	fa0,28(sp)
 606:	6c6f6873          	csrrsi	a6,0x6c6,30
 60a:	0064                	addi	s1,sp,12
 60c:	6e69                	lui	t3,0x1a
 60e:	6574                	flw	fa3,76(a0)
 610:	7272                	flw	ft4,60(sp)
 612:	7075                	c.lui	zero,0xffffd
 614:	5f74                	lw	a3,124(a4)
 616:	6469                	lui	s0,0x1a
 618:	6d00                	flw	fs0,24(a0)
 61a:	73756163          	bltu	a0,s7,d3c <_etext+0x524>
 61e:	5f65                	li	t5,-7
 620:	6e69                	lui	t3,0x1a
 622:	6574                	flw	fa3,76(a0)
 624:	7272                	flw	ft4,60(sp)
 626:	7075                	c.lui	zero,0xffffd
 628:	5f74                	lw	a3,124(a4)
 62a:	6174                	flw	fa3,68(a0)
 62c:	6c62                	flw	fs8,24(sp)
 62e:	0065                	c.nop	25
 630:	7270                	flw	fa2,100(a2)
 632:	6f69                	lui	t5,0x1a
 634:	6972                	flw	fs2,28(sp)
 636:	7974                	flw	fa3,116(a0)
 638:	765f 6c61 6575      	0x65756c61765f
 63e:	5300                	lw	s0,32(a4)
 640:	5245                	li	tp,-15
 642:	4956                	lw	s2,84(sp)
 644:	00444543          	fmadd.s	fa0,fs0,ft4,ft0,rmm
 648:	6c70                	flw	fa2,92(s0)
 64a:	6369                	lui	t1,0x1a
 64c:	695f 696e 0074      	0x74696e695f
 652:	7369                	lui	t1,0xffffa
 654:	5f72                	lw	t5,60(sp)
 656:	6564                	flw	fs1,76(a0)
 658:	6166                	flw	ft2,88(sp)
 65a:	6c75                	lui	s8,0x1d
 65c:	0074                	addi	a3,sp,12
 65e:	6e69                	lui	t3,0x1a
 660:	6574                	flw	fa3,76(a0)
 662:	7272                	flw	ft4,60(sp)
 664:	7075                	c.lui	zero,0xffffd
 666:	5f74                	lw	a3,124(a4)
 668:	7270                	flw	fa2,100(a2)
 66a:	6f69                	lui	t5,0x1a
 66c:	6972                	flw	fs2,28(sp)
 66e:	7974                	flw	fa3,116(a0)
 670:	615f 6464 6572      	0x65726464615f
 676:	49007373          	csrrci	t1,0x490,0
 67a:	414e                	lw	sp,208(sp)
 67c:	56495443          	fmadd.q	fs0,fs2,ft4,fa0,unknown
 680:	0045                	c.nop	17
 682:	6e69                	lui	t3,0x1a
 684:	6574                	flw	fa3,76(a0)
 686:	7272                	flw	ft4,60(sp)
 688:	7075                	c.lui	zero,0xffffd
 68a:	5f74                	lw	a3,124(a4)
 68c:	6874                	flw	fa3,84(s0)
 68e:	6572                	flw	fa0,28(sp)
 690:	6c6f6873          	csrrsi	a6,0x6c6,30
 694:	5f64                	lw	s1,124(a4)
 696:	7270                	flw	fa2,100(a2)
 698:	6f69                	lui	t5,0x1a
 69a:	6972                	flw	fs2,28(sp)
 69c:	7974                	flw	fa3,116(a0)
 69e:	5f00                	lw	s0,56(a4)
 6a0:	755f 6e69 7074      	0x70746e69755f
 6a6:	7274                	flw	fa3,100(a2)
 6a8:	745f 7000 696c      	0x696c7000745f
 6ae:	70665f63          	bge	a2,t1,dcc <_etext+0x5b4>
 6b2:	7274                	flw	fa3,100(a2)
 6b4:	745f 6900 746e      	0x746e6900745f
 6ba:	7265                	lui	tp,0xffff9
 6bc:	7572                	flw	fa0,60(sp)
 6be:	7470                	flw	fa2,108(s0)
 6c0:	735f 6174 7574      	0x75746174735f
 6c6:	00655f73          	csrrwi	t5,0x6,10
 6ca:	636d                	lui	t1,0x1b
 6cc:	7561                	lui	a0,0xffff8
 6ce:	745f6573          	csrrsi	a0,0x745,30
 6d2:	6172                	flw	ft2,28(sp)
 6d4:	5f70                	lw	a2,124(a4)
 6d6:	6174                	flw	fa3,68(a0)
 6d8:	6c62                	flw	fs8,24(sp)
 6da:	0065                	c.nop	25
 6dc:	656e                	flw	fa0,216(sp)
 6de:	61765f77          	0x61765f77
 6e2:	756c                	flw	fa1,108(a0)
 6e4:	0065                	c.nop	25
 6e6:	6e69                	lui	t3,0x1a
 6e8:	6574                	flw	fa3,76(a0)
 6ea:	7272                	flw	ft4,60(sp)
 6ec:	7075                	c.lui	zero,0xffffd
 6ee:	5f74                	lw	a3,124(a4)
 6f0:	6964                	flw	fs1,84(a0)
 6f2:	6c626173          	csrrsi	sp,0x6c6,4
 6f6:	5f65                	li	t5,-7
 6f8:	6461                	lui	s0,0x18
 6fa:	7264                	flw	fs1,100(a2)
 6fc:	6900                	flw	fs0,16(a0)
 6fe:	746e                	flw	fs0,248(sp)
 700:	7265                	lui	tp,0xffff9
 702:	7572                	flw	fa0,60(sp)
 704:	7470                	flw	fa2,108(s0)
 706:	655f 616e 6c62      	0x6c62616e655f
 70c:	5f65                	li	t5,-7
 70e:	6461                	lui	s0,0x18
 710:	7264                	flw	fs1,100(a2)
 712:	6900                	flw	fs0,16(a0)
 714:	746e                	flw	fs0,248(sp)
 716:	7265                	lui	tp,0xffff9
 718:	7572                	flw	fa0,60(sp)
 71a:	7470                	flw	fa2,108(s0)
 71c:	645f 7461 5f61      	0x5f617461645f
 722:	0074                	addi	a3,sp,12
 724:	5f746573          	csrrsi	a0,0x5f7,8
 728:	6e69                	lui	t3,0x1a
 72a:	6574                	flw	fa3,76(a0)
 72c:	7272                	flw	ft4,60(sp)
 72e:	7075                	c.lui	zero,0xffffd
 730:	5f74                	lw	a3,124(a4)
 732:	7270                	flw	fa2,100(a2)
 734:	6f69                	lui	t5,0x1a
 736:	6972                	flw	fs2,28(sp)
 738:	7974                	flw	fa3,116(a0)
 73a:	6d00                	flw	fs0,24(a0)
 73c:	6361                	lui	t1,0x18
 73e:	5f68                	lw	a0,124(a4)
 740:	6c70                	flw	fa2,92(s0)
 742:	6369                	lui	t1,0x1a
 744:	685f 6e61 6c64      	0x6c646e61685f
 74a:	7265                	lui	tp,0xffff9
 74c:	6900                	flw	fs0,16(a0)
 74e:	746e                	flw	fs0,248(sp)
 750:	7265                	lui	tp,0xffff9
 752:	7572                	flw	fa0,60(sp)
 754:	7470                	flw	fa2,108(s0)
 756:	635f 616c 6d69      	0x6d69616c635f
 75c:	725f 7165 6575      	0x65757165725f
 762:	65007473          	csrrci	s0,0x650,0
 766:	7478                	flw	fa4,108(s0)
 768:	6172                	flw	ft2,28(sp)
 76a:	695f7463          	bgeu	t5,s5,df2 <_etext+0x5da>
 76e:	5f65                	li	t5,-7
 770:	65646f63          	bltu	s0,s6,dce <_etext+0x5b6>
 774:	7300                	flw	fs0,32(a4)
 776:	6968                	flw	fa0,84(a0)
 778:	7466                	flw	fs0,120(sp)
 77a:	6c5f 6e65 7467      	0x74676e656c5f
 780:	0068                	addi	a0,sp,12
 782:	6168                	flw	fa0,68(a0)
 784:	646e                	flw	fs0,216(sp)
 786:	656c                	flw	fa1,76(a0)
 788:	745f 6172 0070      	0x706172745f
 78e:	636d                	lui	t1,0x1b
 790:	7561                	lui	a0,0xffff8
 792:	65006573          	csrrsi	a0,0x650,0
 796:	6378                	flw	fa4,68(a4)
 798:	7065                	c.lui	zero,0xffff9
 79a:	6974                	flw	fa3,84(a0)
 79c:	635f6e6f          	jal	t3,f75d0 <_etext+0xf6db8>
 7a0:	0065646f          	jal	s0,567a6 <_etext+0x55f8e>
 7a4:	6d6f682f          	0x6d6f682f
 7a8:	2f65                	jal	f60 <_etext+0x748>
 7aa:	656d                	lui	a0,0x1b
 7ac:	6c72                	flw	fs8,28(sp)
 7ae:	7469672f          	0x7469672f
 7b2:	7568                	flw	fa0,108(a0)
 7b4:	5f62                	lw	t5,56(sp)
 7b6:	6572                	flw	fa0,28(sp)
 7b8:	6f70                	flw	fa2,92(a4)
 7ba:	7a612f73          	csrrs	t5,0x7a6,sp
 7be:	6461                	lui	s0,0x18
 7c0:	2f69                	jal	f5a <_etext+0x742>
 7c2:	6574                	flw	fa3,76(a0)
 7c4:	2f737473          	csrrci	s0,0x2f7,6
 7c8:	7361                	lui	t1,0xffff8
 7ca:	2f6d                	jal	f84 <_etext+0x76c>
 7cc:	6d6d6f63          	bltu	s10,s6,eaa <_etext+0x692>
 7d0:	742f6e6f          	jal	t3,f6f12 <_etext+0xf66fa>
 7d4:	6172                	flw	ft2,28(sp)
 7d6:	7370                	flw	fa2,100(a4)
 7d8:	632e                	flw	ft6,200(sp)
 7da:	6400                	flw	fs0,8(s0)
 7dc:	6665                	lui	a2,0x19
 7de:	7561                	lui	a0,0xffff8
 7e0:	746c                	flw	fa1,108(s0)
 7e2:	685f 6e61 6c64      	0x6c646e61685f
 7e8:	7265                	lui	tp,0xffff9
 7ea:	6900                	flw	fs0,16(a0)
 7ec:	5f65                	li	t5,-7
 7ee:	6e65                	lui	t3,0x19
 7f0:	7274                	flw	fa3,100(a2)
 7f2:	0079                	c.nop	30
 7f4:	7274                	flw	fa3,100(a2)
 7f6:	7061                	c.lui	zero,0xffff8
 7f8:	695f 696e 0074      	0x74696e695f
 7fe:	6d6f682f          	0x6d6f682f
 802:	2f65                	jal	fba <_etext+0x7a2>
 804:	656d                	lui	a0,0x1b
 806:	6c72                	flw	fs8,28(sp)
 808:	7469672f          	0x7469672f
 80c:	7568                	flw	fa0,108(a0)
 80e:	5f62                	lw	t5,56(sp)
 810:	6572                	flw	fa0,28(sp)
 812:	6f70                	flw	fa2,92(a4)
 814:	7a612f73          	csrrs	t5,0x7a6,sp
 818:	6461                	lui	s0,0x18
 81a:	2f69                	jal	fb4 <_etext+0x79c>
 81c:	6574                	flw	fa3,76(a0)
 81e:	2f737473          	csrrci	s0,0x2f7,6
 822:	7361                	lui	t1,0xffff8
 824:	2f6d                	jal	fde <_etext+0x7c6>
 826:	6d6d6f63          	bltu	s10,s6,f04 <_etext+0x6ec>
 82a:	692f6e6f          	jal	t3,f6ebc <_etext+0xf66a4>
 82e:	696e                	flw	fs2,216(sp)
 830:	2e74                	fld	fa3,216(a2)
 832:	          	beqz	zero,832 <_etext+0x1a>

Disassembly of section .debug_frame:

00000000 <.debug_frame>:
   0:	000c                	0xc
   2:	0000                	unimp
   4:	ffff                	0xffff
   6:	ffff                	0xffff
   8:	0001                	nop
   a:	7c01                	lui	s8,0xfffe0
   c:	0d01                	addi	s10,s10,0
   e:	0002                	c.slli64	zero
  10:	0020                	addi	s0,sp,8
  12:	0000                	unimp
  14:	0000                	unimp
  16:	0000                	unimp
  18:	01c0                	addi	s0,sp,196
  1a:	0000                	unimp
  1c:	0040                	addi	s0,sp,4
  1e:	0000                	unimp
  20:	0e44                	addi	s1,sp,788
  22:	4420                	lw	s0,72(s0)
  24:	0188                	addi	a0,sp,192
  26:	0c44                	addi	s1,sp,532
  28:	0008                	0x8
  2a:	c86c                	sw	a1,84(s0)
  2c:	020c                	addi	a1,sp,256
  2e:	4420                	lw	s0,72(s0)
  30:	000e                	c.slli	zero,0x3
  32:	0000                	unimp
  34:	000c                	0xc
  36:	0000                	unimp
  38:	ffff                	0xffff
  3a:	ffff                	0xffff
  3c:	0001                	nop
  3e:	7c01                	lui	s8,0xfffe0
  40:	0d01                	addi	s10,s10,0
  42:	0002                	c.slli64	zero
  44:	0020                	addi	s0,sp,8
  46:	0000                	unimp
  48:	0034                	addi	a3,sp,8
  4a:	0000                	unimp
  4c:	0200                	addi	s0,sp,256
  4e:	0000                	unimp
  50:	0028                	addi	a0,sp,8
  52:	0000                	unimp
  54:	0e44                	addi	s1,sp,788
  56:	4420                	lw	s0,72(s0)
  58:	0188                	addi	a0,sp,192
  5a:	0c44                	addi	s1,sp,532
  5c:	0008                	0x8
  5e:	c854                	sw	a3,20(s0)
  60:	020c                	addi	a1,sp,256
  62:	4420                	lw	s0,72(s0)
  64:	000e                	c.slli	zero,0x3
  66:	0000                	unimp
  68:	0020                	addi	s0,sp,8
  6a:	0000                	unimp
  6c:	0034                	addi	a3,sp,8
  6e:	0000                	unimp
  70:	0228                	addi	a0,sp,264
  72:	0000                	unimp
  74:	0030                	addi	a2,sp,8
  76:	0000                	unimp
  78:	0e44                	addi	s1,sp,788
  7a:	4420                	lw	s0,72(s0)
  7c:	0188                	addi	a0,sp,192
  7e:	0c44                	addi	s1,sp,532
  80:	0008                	0x8
  82:	c85c                	sw	a5,20(s0)
  84:	020c                	addi	a1,sp,256
  86:	4420                	lw	s0,72(s0)
  88:	000e                	c.slli	zero,0x3
  8a:	0000                	unimp
  8c:	0020                	addi	s0,sp,8
  8e:	0000                	unimp
  90:	0034                	addi	a3,sp,8
  92:	0000                	unimp
  94:	0258                	addi	a4,sp,260
  96:	0000                	unimp
  98:	007c                	addi	a5,sp,12
  9a:	0000                	unimp
  9c:	0e44                	addi	s1,sp,788
  9e:	4430                	lw	a2,72(s0)
  a0:	0188                	addi	a0,sp,192
  a2:	0c44                	addi	s1,sp,532
  a4:	0008                	0x8
  a6:	6802                	flw	fa6,0(sp)
  a8:	0cc8                	addi	a0,sp,596
  aa:	3002                	fld	ft0,32(sp)
  ac:	0e44                	addi	s1,sp,788
  ae:	0000                	unimp
  b0:	0020                	addi	s0,sp,8
  b2:	0000                	unimp
  b4:	0034                	addi	a3,sp,8
  b6:	0000                	unimp
  b8:	02d4                	addi	a3,sp,324
  ba:	0000                	unimp
  bc:	0020                	addi	s0,sp,8
  be:	0000                	unimp
  c0:	0e44                	addi	s1,sp,788
  c2:	4420                	lw	s0,72(s0)
  c4:	0188                	addi	a0,sp,192
  c6:	0c44                	addi	s1,sp,532
  c8:	0008                	0x8
  ca:	c84c                	sw	a1,20(s0)
  cc:	020c                	addi	a1,sp,256
  ce:	4420                	lw	s0,72(s0)
  d0:	000e                	c.slli	zero,0x3
  d2:	0000                	unimp
  d4:	0020                	addi	s0,sp,8
  d6:	0000                	unimp
  d8:	0034                	addi	a3,sp,8
  da:	0000                	unimp
  dc:	02f4                	addi	a3,sp,332
  de:	0000                	unimp
  e0:	003c                	addi	a5,sp,8
  e2:	0000                	unimp
  e4:	0e44                	addi	s1,sp,788
  e6:	4420                	lw	s0,72(s0)
  e8:	0188                	addi	a0,sp,192
  ea:	0c44                	addi	s1,sp,532
  ec:	0008                	0x8
  ee:	c868                	sw	a0,84(s0)
  f0:	020c                	addi	a1,sp,256
  f2:	4420                	lw	s0,72(s0)
  f4:	000e                	c.slli	zero,0x3
  f6:	0000                	unimp
  f8:	0024                	addi	s1,sp,8
  fa:	0000                	unimp
  fc:	0034                	addi	a3,sp,8
  fe:	0000                	unimp
 100:	0330                	addi	a2,sp,392
 102:	0000                	unimp
 104:	0070                	addi	a2,sp,12
 106:	0000                	unimp
 108:	0e44                	addi	s1,sp,788
 10a:	4830                	lw	a2,80(s0)
 10c:	0181                	addi	gp,gp,0
 10e:	0288                	addi	a0,sp,320
 110:	0c44                	addi	s1,sp,532
 112:	0008                	0x8
 114:	5402                	lw	s0,32(sp)
 116:	44c1                	li	s1,16
 118:	0cc8                	addi	a0,sp,596
 11a:	3002                	fld	ft0,32(sp)
 11c:	0e44                	addi	s1,sp,788
 11e:	0000                	unimp
 120:	0020                	addi	s0,sp,8
 122:	0000                	unimp
 124:	0034                	addi	a3,sp,8
 126:	0000                	unimp
 128:	03a0                	addi	s0,sp,456
 12a:	0000                	unimp
 12c:	007c                	addi	a5,sp,12
 12e:	0000                	unimp
 130:	0e44                	addi	s1,sp,788
 132:	4430                	lw	a2,72(s0)
 134:	0188                	addi	a0,sp,192
 136:	0c44                	addi	s1,sp,532
 138:	0008                	0x8
 13a:	6802                	flw	fa6,0(sp)
 13c:	0cc8                	addi	a0,sp,596
 13e:	3002                	fld	ft0,32(sp)
 140:	0e44                	addi	s1,sp,788
 142:	0000                	unimp
 144:	0020                	addi	s0,sp,8
 146:	0000                	unimp
 148:	0034                	addi	a3,sp,8
 14a:	0000                	unimp
 14c:	041c                	addi	a5,sp,512
 14e:	0000                	unimp
 150:	00a0                	addi	s0,sp,72
 152:	0000                	unimp
 154:	0e44                	addi	s1,sp,788
 156:	4430                	lw	a2,72(s0)
 158:	0188                	addi	a0,sp,192
 15a:	0c44                	addi	s1,sp,532
 15c:	0008                	0x8
 15e:	8c02                	jr	s8
 160:	0cc8                	addi	a0,sp,596
 162:	3002                	fld	ft0,32(sp)
 164:	0e44                	addi	s1,sp,788
 166:	0000                	unimp
 168:	0020                	addi	s0,sp,8
 16a:	0000                	unimp
 16c:	0034                	addi	a3,sp,8
 16e:	0000                	unimp
 170:	04bc                	addi	a5,sp,584
 172:	0000                	unimp
 174:	0038                	addi	a4,sp,8
 176:	0000                	unimp
 178:	0e44                	addi	s1,sp,788
 17a:	4430                	lw	a2,72(s0)
 17c:	0188                	addi	a0,sp,192
 17e:	0c44                	addi	s1,sp,532
 180:	0008                	0x8
 182:	c864                	sw	s1,84(s0)
 184:	020c                	addi	a1,sp,256
 186:	4430                	lw	a2,72(s0)
 188:	000e                	c.slli	zero,0x3
 18a:	0000                	unimp
 18c:	0020                	addi	s0,sp,8
 18e:	0000                	unimp
 190:	0034                	addi	a3,sp,8
 192:	0000                	unimp
 194:	04f4                	addi	a3,sp,588
 196:	0000                	unimp
 198:	0044                	addi	s1,sp,4
 19a:	0000                	unimp
 19c:	0e44                	addi	s1,sp,788
 19e:	4430                	lw	a2,72(s0)
 1a0:	0188                	addi	a0,sp,192
 1a2:	0c44                	addi	s1,sp,532
 1a4:	0008                	0x8
 1a6:	c870                	sw	a2,84(s0)
 1a8:	020c                	addi	a1,sp,256
 1aa:	4430                	lw	a2,72(s0)
 1ac:	000e                	c.slli	zero,0x3
 1ae:	0000                	unimp
 1b0:	0020                	addi	s0,sp,8
 1b2:	0000                	unimp
 1b4:	0034                	addi	a3,sp,8
 1b6:	0000                	unimp
 1b8:	0538                	addi	a4,sp,648
 1ba:	0000                	unimp
 1bc:	0020                	addi	s0,sp,8
 1be:	0000                	unimp
 1c0:	0e44                	addi	s1,sp,788
 1c2:	4420                	lw	s0,72(s0)
 1c4:	0188                	addi	a0,sp,192
 1c6:	0c44                	addi	s1,sp,532
 1c8:	0008                	0x8
 1ca:	c84c                	sw	a1,20(s0)
 1cc:	020c                	addi	a1,sp,256
 1ce:	4420                	lw	s0,72(s0)
 1d0:	000e                	c.slli	zero,0x3
 1d2:	0000                	unimp
 1d4:	0024                	addi	s1,sp,8
 1d6:	0000                	unimp
 1d8:	0034                	addi	a3,sp,8
 1da:	0000                	unimp
 1dc:	0558                	addi	a4,sp,644
 1de:	0000                	unimp
 1e0:	010c                	addi	a1,sp,128
 1e2:	0000                	unimp
 1e4:	0e44                	addi	s1,sp,788
 1e6:	4820                	lw	s0,80(s0)
 1e8:	0181                	addi	gp,gp,0
 1ea:	0288                	addi	a0,sp,320
 1ec:	0c44                	addi	s1,sp,532
 1ee:	0008                	0x8
 1f0:	c100f003          	0xc100f003
 1f4:	c844                	sw	s1,20(s0)
 1f6:	020c                	addi	a1,sp,256
 1f8:	4420                	lw	s0,72(s0)
 1fa:	000e                	c.slli	zero,0x3
 1fc:	0024                	addi	s1,sp,8
 1fe:	0000                	unimp
 200:	0034                	addi	a3,sp,8
 202:	0000                	unimp
 204:	0664                	addi	s1,sp,780
 206:	0000                	unimp
 208:	0050                	addi	a2,sp,4
 20a:	0000                	unimp
 20c:	0e44                	addi	s1,sp,788
 20e:	4820                	lw	s0,80(s0)
 210:	0181                	addi	gp,gp,0
 212:	0288                	addi	a0,sp,320
 214:	0c44                	addi	s1,sp,532
 216:	0008                	0x8
 218:	c174                	sw	a3,68(a0)
 21a:	c844                	sw	s1,20(s0)
 21c:	020c                	addi	a1,sp,256
 21e:	4420                	lw	s0,72(s0)
 220:	000e                	c.slli	zero,0x3
 222:	0000                	unimp
 224:	000c                	0xc
 226:	0000                	unimp
 228:	ffff                	0xffff
 22a:	ffff                	0xffff
 22c:	0001                	nop
 22e:	7c01                	lui	s8,0xfffe0
 230:	0d01                	addi	s10,s10,0
 232:	0002                	c.slli64	zero
 234:	0020                	addi	s0,sp,8
 236:	0000                	unimp
 238:	0224                	addi	s1,sp,264
 23a:	0000                	unimp
 23c:	06b4                	addi	a3,sp,840
 23e:	0000                	unimp
 240:	0038                	addi	a4,sp,8
 242:	0000                	unimp
 244:	0e44                	addi	s1,sp,788
 246:	4430                	lw	a2,72(s0)
 248:	0188                	addi	a0,sp,192
 24a:	0c44                	addi	s1,sp,532
 24c:	0008                	0x8
 24e:	c864                	sw	s1,84(s0)
 250:	020c                	addi	a1,sp,256
 252:	4430                	lw	a2,72(s0)
 254:	000e                	c.slli	zero,0x3
 256:	0000                	unimp
 258:	0018                	0x18
 25a:	0000                	unimp
 25c:	0224                	addi	s1,sp,264
 25e:	0000                	unimp
 260:	06ec                	addi	a1,sp,844
 262:	0000                	unimp
 264:	0018                	0x18
 266:	0000                	unimp
 268:	0e44                	addi	s1,sp,788
 26a:	4420                	lw	s0,72(s0)
 26c:	0188                	addi	a0,sp,192
 26e:	0c44                	addi	s1,sp,532
 270:	0008                	0x8
 272:	0000                	unimp
 274:	0024                	addi	s1,sp,8
 276:	0000                	unimp
 278:	0224                	addi	s1,sp,264
 27a:	0000                	unimp
 27c:	0704                	addi	s1,sp,896
 27e:	0000                	unimp
 280:	00ac                	addi	a1,sp,72
 282:	0000                	unimp
 284:	0e44                	addi	s1,sp,788
 286:	4830                	lw	a2,80(s0)
 288:	0181                	addi	gp,gp,0
 28a:	0288                	addi	a0,sp,320
 28c:	0c44                	addi	s1,sp,532
 28e:	0008                	0x8
 290:	9002                	ebreak
 292:	44c1                	li	s1,16
 294:	0cc8                	addi	a0,sp,596
 296:	3002                	fld	ft0,32(sp)
 298:	0e44                	addi	s1,sp,788
 29a:	0000                	unimp
 29c:	000c                	0xc
 29e:	0000                	unimp
 2a0:	ffff                	0xffff
 2a2:	ffff                	0xffff
 2a4:	0001                	nop
 2a6:	7c01                	lui	s8,0xfffe0
 2a8:	0d01                	addi	s10,s10,0
 2aa:	0002                	c.slli64	zero
 2ac:	0020                	addi	s0,sp,8
 2ae:	0000                	unimp
 2b0:	029c                	addi	a5,sp,320
 2b2:	0000                	unimp
 2b4:	07b0                	addi	a2,sp,968
 2b6:	0000                	unimp
 2b8:	003c                	addi	a5,sp,8
 2ba:	0000                	unimp
 2bc:	0e44                	addi	s1,sp,788
 2be:	4410                	lw	a2,8(s0)
 2c0:	0188                	addi	a0,sp,192
 2c2:	0c44                	addi	s1,sp,532
 2c4:	0008                	0x8
 2c6:	c868                	sw	a0,84(s0)
 2c8:	020c                	addi	a1,sp,256
 2ca:	4410                	lw	a2,8(s0)
 2cc:	000e                	c.slli	zero,0x3
 2ce:	0000                	unimp
 2d0:	0024                	addi	s1,sp,8
 2d2:	0000                	unimp
 2d4:	029c                	addi	a5,sp,320
 2d6:	0000                	unimp
 2d8:	07ec                	addi	a1,sp,972
 2da:	0000                	unimp
 2dc:	002c                	addi	a1,sp,8
 2de:	0000                	unimp
 2e0:	0e44                	addi	s1,sp,788
 2e2:	4810                	lw	a2,16(s0)
 2e4:	0181                	addi	gp,gp,0
 2e6:	0288                	addi	a0,sp,320
 2e8:	0c44                	addi	s1,sp,532
 2ea:	0008                	0x8
 2ec:	c150                	sw	a2,4(a0)
 2ee:	c844                	sw	s1,20(s0)
 2f0:	020c                	addi	a1,sp,256
 2f2:	4410                	lw	a2,8(s0)
 2f4:	000e                	c.slli	zero,0x3
 2f6:	0000                	unimp
