
/home/usman/Documents/azadi/tests/asm/output/add.merl:     file format elf32-littleriscv


Disassembly of section .init:

00000000 <_start>:
   0:	10000197          	auipc	gp,0x10000
   4:	00018193          	mv	gp,gp
   8:	10001117          	auipc	sp,0x10001
   c:	ff810113          	addi	sp,sp,-8 # 10001000 <__stack_top>
  10:	00010433          	add	s0,sp,zero
  14:	0040006f          	j	18 <main>

Disassembly of section .text:

00000018 <main>:
  18:	fe010113          	addi	sp,sp,-32
  1c:	00812e23          	sw	s0,28(sp)
  20:	02010413          	addi	s0,sp,32
  24:	00100793          	li	a5,1
  28:	fef42623          	sw	a5,-20(s0)
  2c:	00100793          	li	a5,1
  30:	fef42423          	sw	a5,-24(s0)
  34:	fec42703          	lw	a4,-20(s0)
  38:	fe842783          	lw	a5,-24(s0)
  3c:	00f707b3          	add	a5,a4,a5
  40:	fef42223          	sw	a5,-28(s0)
  44:	00000793          	li	a5,0
  48:	00078513          	mv	a0,a5
  4c:	01c12403          	lw	s0,28(sp)
  50:	02010113          	addi	sp,sp,32
  54:	00008067          	ret

Disassembly of section .eh_frame:

00000058 <__global_pointer$-0xfffffa8>:
  58:	0014                	0x14
  5a:	0000                	unimp
  5c:	0000                	unimp
  5e:	0000                	unimp
  60:	00527a03          	0x527a03
  64:	7c01                	lui	s8,0xfffe0
  66:	0101                	addi	sp,sp,0
  68:	07020d1b          	0x7020d1b
  6c:	0001                	nop
  6e:	0000                	unimp
  70:	0010                	0x10
  72:	0000                	unimp
  74:	001c                	0x1c
  76:	0000                	unimp
  78:	ff88                	fsw	fa0,56(a5)
  7a:	ffff                	0xffff
  7c:	0018                	0x18
  7e:	0000                	unimp
  80:	0000                	unimp
  82:	0000                	unimp

Disassembly of section .riscv.attributes:

00000000 <.riscv.attributes>:
   0:	1b41                	addi	s6,s6,-16
   2:	0000                	unimp
   4:	7200                	flw	fs0,32(a2)
   6:	7369                	lui	t1,0xffffa
   8:	01007663          	bgeu	zero,a6,14 <_start+0x14>
   c:	0011                	c.nop	4
   e:	0000                	unimp
  10:	1004                	addi	s1,sp,32
  12:	7205                	lui	tp,0xfffe1
  14:	3376                	fld	ft6,376(sp)
  16:	6932                	flw	fs2,12(sp)
  18:	7032                	flw	ft0,44(sp)
  1a:	0030                	addi	a2,sp,8

Disassembly of section .comment:

00000000 <.comment>:
   0:	3a434347          	fmsub.d	ft6,ft6,ft4,ft7,rmm
   4:	2820                	fld	fs0,80(s0)
   6:	29554e47          	fmsub.s	ft8,fa0,fs5,ft5,rmm
   a:	3120                	fld	fs0,96(a0)
   c:	2e30                	fld	fa2,88(a2)
   e:	2e32                	fld	ft8,264(sp)
  10:	0030                	addi	a2,sp,8

Disassembly of section .debug_info:

00000000 <.debug_info>:
   0:	00ad                	addi	ra,ra,11
   2:	0000                	unimp
   4:	0004                	0x4
   6:	0000                	unimp
   8:	0000                	unimp
   a:	0104                	addi	s1,sp,128
   c:	0099                	addi	ra,ra,6
   e:	0000                	unimp
  10:	260c                	fld	fa1,8(a2)
  12:	0000                	unimp
  14:	6900                	flw	fs0,16(a0)
  16:	0000                	unimp
  18:	1800                	addi	s0,sp,48
  1a:	0000                	unimp
  1c:	4000                	lw	s0,0(s0)
  1e:	0000                	unimp
  20:	0000                	unimp
  22:	0000                	unimp
  24:	0200                	addi	s0,sp,256
  26:	0601                	addi	a2,a2,0
  28:	008d                	addi	ra,ra,3
  2a:	0000                	unimp
  2c:	0102                	c.slli64	sp
  2e:	8b08                	0x8b08
  30:	0000                	unimp
  32:	0200                	addi	s0,sp,256
  34:	0502                	c.slli64	a0
  36:	00fa                	slli	ra,ra,0x1e
  38:	0000                	unimp
  3a:	0202                	c.slli64	tp
  3c:	00000e07          	0xe07
  40:	0200                	addi	s0,sp,256
  42:	0504                	addi	s1,sp,640
  44:	0005                	c.nop	1
  46:	0000                	unimp
  48:	0402                	c.slli64	s0
  4a:	00005707          	0x5707
  4e:	0200                	addi	s0,sp,256
  50:	0508                	addi	a0,sp,640
  52:	0000                	unimp
  54:	0000                	unimp
  56:	0802                	c.slli64	a6
  58:	00005207          	0x5207
  5c:	0300                	addi	s0,sp,384
  5e:	0504                	addi	s1,sp,640
  60:	6e69                	lui	t3,0x1a
  62:	0074                	addi	a3,sp,12
  64:	0402                	c.slli64	s0
  66:	00005c07          	0x5c07
  6a:	0200                	addi	s0,sp,256
  6c:	0801                	addi	a6,a6,0
  6e:	0094                	addi	a3,sp,64
  70:	0000                	unimp
  72:	2104                	fld	fs1,0(a0)
  74:	0000                	unimp
  76:	0100                	addi	s0,sp,128
  78:	005d0503          	lb	a0,5(s10)
  7c:	0000                	unimp
  7e:	0018                	0x18
  80:	0000                	unimp
  82:	0040                	addi	s0,sp,4
  84:	0000                	unimp
  86:	9c01                	0x9c01
  88:	6105                	addi	sp,sp,32
  8a:	0100                	addi	s0,sp,128
  8c:	0904                	addi	s1,sp,144
  8e:	005d                	c.nop	23
  90:	0000                	unimp
  92:	9102                	jalr	sp
  94:	056c                	addi	a1,sp,652
  96:	0062                	c.slli	zero,0x18
  98:	0501                	addi	a0,a0,0
  9a:	5d09                	li	s10,-30
  9c:	0000                	unimp
  9e:	0200                	addi	s0,sp,256
  a0:	6891                	lui	a7,0x4
  a2:	6305                	lui	t1,0x1
  a4:	0100                	addi	s0,sp,128
  a6:	0906                	slli	s2,s2,0x1
  a8:	005d                	c.nop	23
  aa:	0000                	unimp
  ac:	9102                	jalr	sp
  ae:	0064                	addi	s1,sp,12
  b0:	00              	Address 0x00000000000000b0 is out of bounds.


Disassembly of section .debug_abbrev:

00000000 <.debug_abbrev>:
   0:	1101                	addi	sp,sp,-32
   2:	2501                	jal	602 <_etext+0x5aa>
   4:	130e                	slli	t1,t1,0x23
   6:	1b0e030b          	0x1b0e030b
   a:	110e                	slli	sp,sp,0x23
   c:	1201                	addi	tp,tp,-32
   e:	1006                	c.slli	zero,0x21
  10:	02000017          	auipc	zero,0x2000
  14:	0024                	addi	s1,sp,8
  16:	0b3e0b0b          	0xb3e0b0b
  1a:	00000e03          	lb	t3,0(zero) # 0 <_start>
  1e:	0b002403          	lw	s0,176(zero) # b0 <_etext+0x58>
  22:	030b3e0b          	0x30b3e0b
  26:	0008                	0x8
  28:	0400                	addi	s0,sp,512
  2a:	012e                	slli	sp,sp,0xb
  2c:	0e03193f 0b3b0b3a 	0xb3b0b3a0e03193f
  34:	0b39                	addi	s6,s6,14
  36:	1349                	addi	t1,t1,-14
  38:	0111                	addi	sp,sp,4
  3a:	0612                	slli	a2,a2,0x4
  3c:	1840                	addi	s0,sp,52
  3e:	00194297          	auipc	t0,0x194
  42:	0500                	addi	s0,sp,640
  44:	0034                	addi	a3,sp,8
  46:	0b3a0803          	lb	a6,179(s4)
  4a:	0b390b3b          	0xb390b3b
  4e:	1349                	addi	t1,t1,-14
  50:	1802                	slli	a6,a6,0x20
  52:	0000                	unimp
  54:	00              	Address 0x0000000000000054 is out of bounds.


Disassembly of section .debug_aranges:

00000000 <.debug_aranges>:
   0:	001c                	0x1c
   2:	0000                	unimp
   4:	0002                	c.slli64	zero
   6:	0000                	unimp
   8:	0000                	unimp
   a:	0004                	0x4
   c:	0000                	unimp
   e:	0000                	unimp
  10:	0018                	0x18
  12:	0000                	unimp
  14:	0040                	addi	s0,sp,4
  16:	0000                	unimp
  18:	0000                	unimp
  1a:	0000                	unimp
  1c:	0000                	unimp
  1e:	0000                	unimp

Disassembly of section .debug_line:

00000000 <.debug_line>:
   0:	0076                	c.slli	zero,0x1d
   2:	0000                	unimp
   4:	00420003          	lb	zero,4(tp) # fffe1004 <__stack_top+0xeffe0004>
   8:	0000                	unimp
   a:	0101                	addi	sp,sp,0
   c:	000d0efb          	0xd0efb
  10:	0101                	addi	sp,sp,0
  12:	0101                	addi	sp,sp,0
  14:	0000                	unimp
  16:	0100                	addi	s0,sp,128
  18:	0000                	unimp
  1a:	2f01                	jal	72a <_etext+0x6d2>
  1c:	6f68                	flw	fa0,92(a4)
  1e:	656d                	lui	a0,0x1b
  20:	6d73752f          	0x6d73752f
  24:	6e61                	lui	t3,0x18
  26:	636f442f          	0x636f442f
  2a:	6d75                	lui	s10,0x1d
  2c:	6e65                	lui	t3,0x19
  2e:	7374                	flw	fa3,100(a4)
  30:	617a612f          	0x617a612f
  34:	6964                	flw	fs1,84(a0)
  36:	7365742f          	0x7365742f
  3a:	7374                	flw	fa3,100(a4)
  3c:	6d73612f          	0x6d73612f
  40:	0000                	unimp
  42:	6461                	lui	s0,0x18
  44:	2e64                	fld	fs1,216(a2)
  46:	00010063          	beqz	sp,46 <main+0x2e>
  4a:	0000                	unimp
  4c:	0b05                	addi	s6,s6,1
  4e:	0500                	addi	s0,sp,640
  50:	1802                	slli	a6,a6,0x20
  52:	0000                	unimp
  54:	1400                	addi	s0,sp,544
  56:	0905                	addi	s2,s2,1
  58:	0c090103          	lb	sp,192(s2)
  5c:	0100                	addi	s0,sp,128
  5e:	08090103          	lb	sp,128(s2)
  62:	0100                	addi	s0,sp,128
  64:	0705                	addi	a4,a4,1
  66:	08090203          	lb	tp,128(s2)
  6a:	0100                	addi	s0,sp,128
  6c:	0105                	addi	sp,sp,1
  6e:	14090103          	lb	sp,320(s2)
  72:	0100                	addi	s0,sp,128
  74:	1009                	c.nop	-30
  76:	0000                	unimp
  78:	0101                	addi	sp,sp,0

Disassembly of section .debug_str:

00000000 <.debug_str>:
   0:	6f6c                	flw	fa1,92(a4)
   2:	676e                	flw	fa4,216(sp)
   4:	6c20                	flw	fs0,88(s0)
   6:	20676e6f          	jal	t3,7620c <_etext+0x761b4>
   a:	6e69                	lui	t3,0x1a
   c:	0074                	addi	a3,sp,12
   e:	726f6873          	csrrsi	a6,0x726,30
  12:	2074                	fld	fa3,192(s0)
  14:	6e75                	lui	t3,0x1d
  16:	6e676973          	csrrsi	s2,0x6e6,14
  1a:	6465                	lui	s0,0x19
  1c:	6920                	flw	fs0,80(a0)
  1e:	746e                	flw	fs0,248(sp)
  20:	6d00                	flw	fs0,24(a0)
  22:	6961                	lui	s2,0x18
  24:	006e                	c.slli	zero,0x1b
  26:	6d6f682f          	0x6d6f682f
  2a:	2f65                	jal	7e2 <_etext+0x78a>
  2c:	7375                	lui	t1,0xffffd
  2e:	616d                	addi	sp,sp,240
  30:	2f6e                	fld	ft10,216(sp)
  32:	6f44                	flw	fs1,28(a4)
  34:	656d7563          	bgeu	s10,s6,67e <_etext+0x626>
  38:	746e                	flw	fs0,248(sp)
  3a:	7a612f73          	csrrs	t5,0x7a6,sp
  3e:	6461                	lui	s0,0x18
  40:	2f69                	jal	7da <_etext+0x782>
  42:	6574                	flw	fa3,76(a0)
  44:	2f737473          	csrrci	s0,0x2f7,6
  48:	7361                	lui	t1,0xffff8
  4a:	2f6d                	jal	804 <_etext+0x7ac>
  4c:	6461                	lui	s0,0x18
  4e:	2e64                	fld	fs1,216(a2)
  50:	6f6c0063          	beq	s8,s6,730 <_etext+0x6d8>
  54:	676e                	flw	fa4,216(sp)
  56:	6c20                	flw	fs0,88(s0)
  58:	20676e6f          	jal	t3,7625e <_etext+0x76206>
  5c:	6e75                	lui	t3,0x1d
  5e:	6e676973          	csrrsi	s2,0x6e6,14
  62:	6465                	lui	s0,0x19
  64:	6920                	flw	fs0,80(a0)
  66:	746e                	flw	fs0,248(sp)
  68:	2f00                	fld	fs0,24(a4)
  6a:	6f68                	flw	fa0,92(a4)
  6c:	656d                	lui	a0,0x1b
  6e:	6d73752f          	0x6d73752f
  72:	6e61                	lui	t3,0x18
  74:	636f442f          	0x636f442f
  78:	6d75                	lui	s10,0x1d
  7a:	6e65                	lui	t3,0x19
  7c:	7374                	flw	fa3,100(a4)
  7e:	617a612f          	0x617a612f
  82:	6964                	flw	fs1,84(a0)
  84:	6f6f742f          	0x6f6f742f
  88:	736c                	flw	fa1,100(a4)
  8a:	7500                	flw	fs0,40(a0)
  8c:	736e                	flw	ft6,248(sp)
  8e:	6769                	lui	a4,0x1a
  90:	656e                	flw	fa0,216(sp)
  92:	2064                	fld	fs1,192(s0)
  94:	72616863          	bltu	sp,t1,7c4 <_etext+0x76c>
  98:	4700                	lw	s0,8(a4)
  9a:	554e                	lw	a0,240(sp)
  9c:	4320                	lw	s0,64(a4)
  9e:	3939                	jal	fffffcbc <__stack_top+0xefffecbc>
  a0:	3120                	fld	fs0,96(a0)
  a2:	2e30                	fld	fa2,88(a2)
  a4:	2e32                	fld	ft8,264(sp)
  a6:	2030                	fld	fa2,64(s0)
  a8:	6d2d                	lui	s10,0xb
  aa:	7261                	lui	tp,0xffff8
  ac:	723d6863          	bltu	s10,gp,7dc <_etext+0x784>
  b0:	3376                	fld	ft6,376(sp)
  b2:	6932                	flw	fs2,12(sp)
  b4:	2d20                	fld	fs0,88(a0)
  b6:	616d                	addi	sp,sp,240
  b8:	6962                	flw	fs2,24(sp)
  ba:	693d                	lui	s2,0xf
  bc:	706c                	flw	fa1,100(s0)
  be:	2d203233          	0x2d203233
  c2:	636d                	lui	t1,0x1b
  c4:	6f6d                	lui	t5,0x1b
  c6:	6564                	flw	fs1,76(a0)
  c8:	3d6c                	fld	fa1,248(a0)
  ca:	656d                	lui	a0,0x1b
  cc:	6164                	flw	fs1,68(a0)
  ce:	796e                	flw	fs2,248(sp)
  d0:	2d20                	fld	fs0,88(a0)
  d2:	746d                	lui	s0,0xffffb
  d4:	6e75                	lui	t3,0x1d
  d6:	3d65                	jal	ffffff8e <__stack_top+0xefffef8e>
  d8:	6f72                	flw	ft10,28(sp)
  da:	74656b63          	bltu	a0,t1,830 <_etext+0x7d8>
  de:	2d20                	fld	fs0,88(a0)
  e0:	616d                	addi	sp,sp,240
  e2:	6372                	flw	ft6,28(sp)
  e4:	3d68                	fld	fa0,248(a0)
  e6:	7672                	flw	fa2,60(sp)
  e8:	20693233          	0x20693233
  ec:	672d                	lui	a4,0xb
  ee:	2d20                	fld	fs0,88(a0)
  f0:	3d647473          	csrrci	s0,0x3d6,8
  f4:	39756e67          	0x39756e67
  f8:	0039                	c.nop	14
  fa:	726f6873          	csrrsi	a6,0x726,30
  fe:	2074                	fld	fa3,192(s0)
 100:	6e69                	lui	t3,0x1a
 102:	0074                	addi	a3,sp,12

Disassembly of section .debug_frame:

00000000 <.debug_frame>:
   0:	000c                	0xc
   2:	0000                	unimp
   4:	ffff                	0xffff
   6:	ffff                	0xffff
   8:	7c010003          	lb	zero,1984(sp)
   c:	0d01                	addi	s10,s10,0
   e:	0002                	c.slli64	zero
  10:	0020                	addi	s0,sp,8
  12:	0000                	unimp
  14:	0000                	unimp
  16:	0000                	unimp
  18:	0018                	0x18
  1a:	0000                	unimp
  1c:	0040                	addi	s0,sp,4
  1e:	0000                	unimp
  20:	0e44                	addi	s1,sp,788
  22:	4420                	lw	s0,72(s0)
  24:	0188                	addi	a0,sp,192
  26:	0c44                	addi	s1,sp,532
  28:	0008                	0x8
  2a:	c86c                	sw	a1,84(s0)
  2c:	020c                	addi	a1,sp,256
  2e:	4420                	lw	s0,72(s0)
  30:	000e                	c.slli	zero,0x3
  32:	0000                	unimp
